

Microchip MPLAB XC8 Assembler V2.31 build 20201012212115 
                                                                                               Wed Jul 07 19:17:22 2021

Microchip MPLAB XC8 C Compiler v2.31 (Free license) build 20201012212115 Og1 
     1                           	processor	18F4620
     2                           	fnconf	rparam,??,?,0
     3                           	pagewidth 120
     4                           	opt	flic
     5                           	psect	idataCOMRAM,global,class=CODE,delta=1,noexec
     6                           	psect	idataBANK0,global,class=CODE,delta=1,noexec
     7                           	psect	idataBANK1,global,class=CODE,delta=1,noexec
     8                           	psect	idataBANK2,global,class=CODE,delta=1,noexec
     9                           	psect	smallconst,global,reloc=2,class=SMALLCONST,delta=1,noexec
    10                           	psect	cinit,global,reloc=2,class=CODE,delta=1
    11                           	psect	bssCOMRAM,global,class=COMRAM,space=1,delta=1,lowdata,noexec
    12                           	psect	dataCOMRAM,global,class=COMRAM,space=1,delta=1,lowdata,noexec
    13                           	psect	bssBANK0,global,class=BANK0,space=1,delta=1,lowdata,noexec
    14                           	psect	dataBANK0,global,class=BANK0,space=1,delta=1,lowdata,noexec
    15                           	psect	bssBANK1,global,class=BANK1,space=1,delta=1,lowdata,noexec
    16                           	psect	dataBANK1,global,class=BANK1,space=1,delta=1,lowdata,noexec
    17                           	psect	dataBANK2,global,class=BANK2,space=1,delta=1,lowdata,noexec
    18                           	psect	bssBANK3,global,class=BANK3,space=1,delta=1,lowdata,noexec
    19                           	psect	cstackCOMRAM,global,class=COMRAM,space=1,delta=1,lowdata,noexec
    20                           	psect	text0,global,reloc=2,class=CODE,delta=1
    21                           	psect	text1,global,reloc=2,class=CODE,delta=1
    22                           	psect	text2,global,reloc=2,class=CODE,delta=1
    23                           	psect	text3,global,reloc=2,class=CODE,delta=1
    24                           	psect	text4,global,reloc=2,class=CODE,delta=1
    25                           	psect	text5,global,reloc=2,class=CODE,delta=1,group=1
    26                           	psect	text6,global,reloc=2,class=CODE,delta=1
    27                           	psect	text7,global,reloc=2,class=CODE,delta=1
    28                           	psect	text8,global,reloc=2,class=CODE,delta=1,group=1
    29                           	psect	text9,global,reloc=2,class=CODE,delta=1,group=1
    30                           	psect	text10,global,reloc=2,class=CODE,delta=1,group=1
    31                           	psect	text11,global,reloc=2,class=CODE,delta=1
    32                           	psect	text12,global,reloc=2,class=CODE,delta=1
    33                           	psect	text13,global,reloc=2,class=CODE,delta=1
    34                           	psect	text14,global,reloc=2,class=CODE,delta=1,group=1
    35                           	psect	text15,global,reloc=2,class=CODE,delta=1
    36                           	psect	text16,global,reloc=2,class=CODE,delta=1
    37                           	psect	intsave_regs,global,class=BIGRAM,space=1,delta=1,noexec
    38                           	psect	rparam,global,class=COMRAM,space=1,delta=1,noexec
    39                           	psect	idloc,global,abs,ovrld,class=IDLOC,space=5,delta=1,noexec
    40                           	psect	config,global,abs,ovrld,class=CONFIG,space=4,delta=1,noexec
    41  0000                     
    42                           ; Version 2.20
    43                           ; Generated 12/02/2020 GMT
    44                           ; 
    45                           ; Copyright © 2020, Microchip Technology Inc. and its subsidiaries ("Microchip")
    46                           ; All rights reserved.
    47                           ; 
    48                           ; This software is developed by Microchip Technology Inc. and its subsidiaries ("Microch
      +                          ip").
    49                           ; 
    50                           ; Redistribution and use in source and binary forms, with or without modification, are
    51                           ; permitted provided that the following conditions are met:
    52                           ; 
    53                           ;     1. Redistributions of source code must retain the above copyright notice, this lis
      +                          t of
    54                           ;        conditions and the following disclaimer.
    55                           ; 
    56                           ;     2. Redistributions in binary form must reproduce the above copyright notice, this 
      +                          list
    57                           ;        of conditions and the following disclaimer in the documentation and/or other
    58                           ;        materials provided with the distribution.
    59                           ; 
    60                           ;     3. Microchip's name may not be used to endorse or promote products derived from th
      +                          is
    61                           ;        software without specific prior written permission.
    62                           ; 
    63                           ; THIS SOFTWARE IS PROVIDED BY MICROCHIP "AS IS" AND ANY EXPRESS OR IMPLIED WARRANTIES,
    64                           ; INCLUDING, BUT NOT LIMITED TO, THE IMPLIED WARRANTIES OF MERCHANTABILITY AND FITNESS F
      +                          OR
    65                           ; PURPOSE ARE DISCLAIMED.  IN NO EVENT SHALL MICROCHIP BE LIABLE FOR ANY DIRECT, INDIREC
      +                          T,
    66                           ; INCIDENTAL, SPECIAL, EXEMPLARY, OR CONSEQUENTIAL DAMAGES (INCLUDING BUT NOT LIMITED TO
    67                           ; PROCUREMENT OF SUBSTITUTE GOODS OR SERVICES; LOSS OF USE, DATA OR PROFITS; OR BUSINESS
    68                           ; INTERRUPTION) HOWSOEVER CAUSED AND ON ANY THEORY OF LIABILITY, WHETHER IN CONTRACT, ST
      +                          RICT
    69                           ; LIABILITY, OR TORT (INCLUDING NEGLIGENCE OR OTHERWISE) ARISING IN ANY WAY OUT OF THE U
      +                          SE OF
    70                           ; THIS SOFTWARE, EVEN IF ADVISED OF THE POSSIBILITY OF SUCH DAMAGE.
    71                           ; 
    72                           ; 
    73                           ; Code-generator required, PIC18F4620 Definitions
    74                           ; 
    75                           ; SFR Addresses
    76  0000                     
    77                           	psect	idataCOMRAM
    78  002A06                     __pidataCOMRAM:
    79                           	callstack 0
    80                           
    81                           ;initializer for _U
    82  002A06  A92C               	dw	43308
    83  002A08  BF28               	dw	48936
    84                           
    85                           	psect	idataBANK0
    86  0029F2                     __pidataBANK0:
    87                           	callstack 0
    88                           
    89                           ;initializer for _input
    90  0029F2  A92C               	dw	43308
    91  0029F4  BF28               	dw	48936
    92                           
    93                           ;initializer for _ref_by_Nbard
    94  0029F6  A92C               	dw	43308
    95  0029F8  BF28               	dw	48936
    96                           
    97                           	psect	idataBANK1
    98  0027FC                     __pidataBANK1:
    99                           	callstack 0
   100                           
   101                           ;initializer for _Kd
   102  0027FC  D377               	dw	54135
   103  0027FE  C052               	dw	49234
   104  002800  B81B               	dw	47131
   105  002802  C029               	dw	49193
   106                           
   107                           ;final_control.c: 16: volatile double A[4][4]={ {1,0.006141536564009,0.000050448099760,0
      +                          .000000103339552},;final_control.c: 20: volatile double B[4][1]={ {0.000034315789206},;f
      +                          inal_control.c: 24: volatile double C[4][4]={ {1,0,0,0},;final_control.c: 28: volatile d
      +                          ouble D[4][1]={ {0},;final_control.c: 34: double Ao[4][4]={ {0.958494770240399,0.1045573
      +                          53964092,0,0},;final_control.c: 38: double Bo[4][5]={ {0.000591844723017,0.0415052297596
      +                          01,-0.098594051805029,0.000870011742836,0},;final_control.c: 42: double Co[4][4]={ {1,0,
      +                          0,0},
   108  002804  C1FF               	dw	49663
   109  002806  4189               	dw	16777
   110                           
   111                           ;final_control.c: 16: volatile double A[4][4]={ {1,0.006141536564009,0.000050448099760,0
      +                          .000000103339552},;final_control.c: 20: volatile double B[4][1]={ {0.000034315789206},;f
      +                          inal_control.c: 24: volatile double C[4][4]={ {1,0,0,0},;final_control.c: 28: volatile d
      +                          ouble D[4][1]={ {0},;final_control.c: 34: double Ao[4][4]={ {0.958494770240399,0.1045573
      +                          53964092,0,0},;final_control.c: 38: double Bo[4][5]={ {0.000591844723017,0.0415052297596
      +                          01,-0.098594051805029,0.000870011742836,0},;final_control.c: 42: double Co[4][4]={ {1,0,
      +                          0,0},
   112  002808  AA8D               	dw	43661
   113  00280A  4029               	dw	16425
   114                           
   115                           ;initializer for _Ao
   116                           ;final_control.c: 16: volatile double A[4][4]={ {1,0.006141536564009,0.000050448099760,0
      +                          .000000103339552},;final_control.c: 20: volatile double B[4][1]={ {0.000034315789206},;f
      +                          inal_control.c: 24: volatile double C[4][4]={ {1,0,0,0},;final_control.c: 28: volatile d
      +                          ouble D[4][1]={ {0},;final_control.c: 34: double Ao[4][4]={ {0.958494770240399,0.1045573
      +                          53964092,0,0},
   117  00280C  5FEA               	dw	24554
   118  00280E  3F75               	dw	16245
   119                           
   120                           ;final_control.c: 16: volatile double A[4][4]={ {1,0.006141536564009,0.000050448099760,0
      +                          .000000103339552},;final_control.c: 20: volatile double B[4][1]={ {0.000034315789206},;f
      +                          inal_control.c: 24: volatile double C[4][4]={ {1,0,0,0},;final_control.c: 28: volatile d
      +                          ouble D[4][1]={ {0},;final_control.c: 34: double Ao[4][4]={ {0.958494770240399,0.1045573
      +                          53964092,0,0},
   121  002810  222A               	dw	8746
   122  002812  3DD6               	dw	15830
   123  002814  0000               	dw	0
   124  002816  0000               	dw	0
   125  002818  0000               	dw	0
   126  00281A  0000               	dw	0
   127  00281C  222A               	dw	8746
   128  00281E  BDD6               	dw	48598
   129                           
   130                           ;final_control.c: 16: volatile double A[4][4]={ {1,0.006141536564009,0.000050448099760,0
      +                          .000000103339552},;final_control.c: 20: volatile double B[4][1]={ {0.000034315789206},;f
      +                          inal_control.c: 24: volatile double C[4][4]={ {1,0,0,0},;final_control.c: 28: volatile d
      +                          ouble D[4][1]={ {0},;final_control.c: 34: double Ao[4][4]={ {0.958494770240399,0.1045573
      +                          53964092,0,0},
   131  002820  5FEA               	dw	24554
   132  002822  3F75               	dw	16245
   133  002824  0000               	dw	0
   134  002826  0000               	dw	0
   135  002828  0000               	dw	0
   136  00282A  0000               	dw	0
   137  00282C  0000               	dw	0
   138  00282E  0000               	dw	0
   139  002830  0000               	dw	0
   140  002832  0000               	dw	0
   141                           
   142                           ;final_control.c: 16: volatile double A[4][4]={ {1,0.006141536564009,0.000050448099760,0
      +                          .000000103339552},;final_control.c: 20: volatile double B[4][1]={ {0.000034315789206},;f
      +                          inal_control.c: 24: volatile double C[4][4]={ {1,0,0,0},;final_control.c: 28: volatile d
      +                          ouble D[4][1]={ {0},;final_control.c: 34: double Ao[4][4]={ {0.958494770240399,0.1045573
      +                          53964092,0,0},
   143  002834  6C90               	dw	27792
   144  002836  3F72               	dw	16242
   145                           
   146                           ;final_control.c: 16: volatile double A[4][4]={ {1,0.006141536564009,0.000050448099760,0
      +                          .000000103339552},;final_control.c: 20: volatile double B[4][1]={ {0.000034315789206},;f
      +                          inal_control.c: 24: volatile double C[4][4]={ {1,0,0,0},;final_control.c: 28: volatile d
      +                          ouble D[4][1]={ {0},;final_control.c: 34: double Ao[4][4]={ {0.958494770240399,0.1045573
      +                          53964092,0,0},
   147  002838  34C7               	dw	13511
   148  00283A  3D0A               	dw	15626
   149  00283C  0000               	dw	0
   150  00283E  0000               	dw	0
   151  002840  0000               	dw	0
   152  002842  0000               	dw	0
   153  002844  34C7               	dw	13511
   154  002846  BD0A               	dw	48394
   155                           
   156                           ;final_control.c: 16: volatile double A[4][4]={ {1,0.006141536564009,0.000050448099760,0
      +                          .000000103339552},;final_control.c: 20: volatile double B[4][1]={ {0.000034315789206},;f
      +                          inal_control.c: 24: volatile double C[4][4]={ {1,0,0,0},;final_control.c: 28: volatile d
      +                          ouble D[4][1]={ {0},;final_control.c: 34: double Ao[4][4]={ {0.958494770240399,0.1045573
      +                          53964092,0,0},
   157  002848  6C90               	dw	27792
   158  00284A  3F72               	dw	16242
   159                           
   160                           ;initializer for _A
   161  00284C  0000               	dw	0
   162  00284E  3F80               	dw	16256
   163                           
   164                           ;final_control.c: 16: volatile double A[4][4]={ {1,0.006141536564009,0.000050448099760,0
      +                          .000000103339552},
   165  002850  3EF1               	dw	16113
   166  002852  3BC9               	dw	15305
   167                           
   168                           ;final_control.c: 16: volatile double A[4][4]={ {1,0.006141536564009,0.000050448099760,0
      +                          .000000103339552},
   169  002854  983C               	dw	38972
   170  002856  3853               	dw	14419
   171                           
   172                           ;final_control.c: 16: volatile double A[4][4]={ {1,0.006141536564009,0.000050448099760,0
      +                          .000000103339552},
   173  002858  EB85               	dw	60293
   174  00285A  33DD               	dw	13277
   175  00285C  0000               	dw	0
   176  00285E  0000               	dw	0
   177                           
   178                           ;final_control.c: 16: volatile double A[4][4]={ {1,0.006141536564009,0.000050448099760,0
      +                          .000000103339552},
   179  002860  B6D1               	dw	46801
   180  002862  3F7F               	dw	16255
   181                           
   182                           ;final_control.c: 16: volatile double A[4][4]={ {1,0.006141536564009,0.000050448099760,0
      +                          .000000103339552},
   183  002864  7EC7               	dw	32455
   184  002866  3C86               	dw	15494
   185                           
   186                           ;final_control.c: 16: volatile double A[4][4]={ {1,0.006141536564009,0.000050448099760,0
      +                          .000000103339552},
   187  002868  983C               	dw	38972
   188  00286A  3853               	dw	14419
   189  00286C  0000               	dw	0
   190  00286E  0000               	dw	0
   191  002870  F124               	dw	61732
   192  002872  B70F               	dw	46863
   193                           
   194                           ;final_control.c: 16: volatile double A[4][4]={ {1,0.006141536564009,0.000050448099760,0
      +                          .000000103339552},
   195  002874  134B               	dw	4939
   196  002876  3F80               	dw	16256
   197                           
   198                           ;final_control.c: 16: volatile double A[4][4]={ {1,0.006141536564009,0.000050448099760,0
      +                          .000000103339552},
   199  002878  65D8               	dw	26072
   200  00287A  3BC9               	dw	15305
   201  00287C  0000               	dw	0
   202  00287E  0000               	dw	0
   203  002880  FC99               	dw	64665
   204  002882  BB36               	dw	47926
   205                           
   206                           ;final_control.c: 16: volatile double A[4][4]={ {1,0.006141536564009,0.000050448099760,0
      +                          .000000103339552},
   207  002884  3998               	dw	14744
   208  002886  3E44               	dw	15940
   209                           
   210                           ;final_control.c: 16: volatile double A[4][4]={ {1,0.006141536564009,0.000050448099760,0
      +                          .000000103339552},
   211  002888  134B               	dw	4939
   212  00288A  3F80               	dw	16256
   213                           
   214                           ;initializer for _nKd
   215                           ;final_control.c: 16: volatile double A[4][4]={ {1,0.006141536564009,0.000050448099760,0
      +                          .000000103339552},;final_control.c: 20: volatile double B[4][1]={ {0.000034315789206},;f
      +                          inal_control.c: 24: volatile double C[4][4]={ {1,0,0,0},;final_control.c: 28: volatile d
      +                          ouble D[4][1]={ {0},;final_control.c: 34: double Ao[4][4]={ {0.958494770240399,0.1045573
      +                          53964092,0,0},;final_control.c: 38: double Bo[4][5]={ {0.000591844723017,0.0415052297596
      +                          01,-0.098594051805029,0.000870011742836,0},;final_control.c: 42: double Co[4][4]={ {1,0,
      +                          0,0},
   216  00288C  D377               	dw	54135
   217  00288E  4052               	dw	16466
   218                           
   219                           ;final_control.c: 16: volatile double A[4][4]={ {1,0.006141536564009,0.000050448099760,0
      +                          .000000103339552},;final_control.c: 20: volatile double B[4][1]={ {0.000034315789206},;f
      +                          inal_control.c: 24: volatile double C[4][4]={ {1,0,0,0},;final_control.c: 28: volatile d
      +                          ouble D[4][1]={ {0},;final_control.c: 34: double Ao[4][4]={ {0.958494770240399,0.1045573
      +                          53964092,0,0},;final_control.c: 38: double Bo[4][5]={ {0.000591844723017,0.0415052297596
      +                          01,-0.098594051805029,0.000870011742836,0},;final_control.c: 42: double Co[4][4]={ {1,0,
      +                          0,0},
   220  002890  B81B               	dw	47131
   221  002892  4029               	dw	16425
   222  002894  C1FF               	dw	49663
   223  002896  C189               	dw	49545
   224  002898  AA8D               	dw	43661
   225  00289A  C029               	dw	49193
   226                           
   227                           ;initializer for _B
   228                           ;final_control.c: 16: volatile double A[4][4]={ {1,0.006141536564009,0.000050448099760,0
      +                          .000000103339552},;final_control.c: 20: volatile double B[4][1]={ {0.000034315789206},
   229  00289C  EE4C               	dw	61004
   230  00289E  380F               	dw	14351
   231                           
   232                           ;final_control.c: 16: volatile double A[4][4]={ {1,0.006141536564009,0.000050448099760,0
      +                          .000000103339552},;final_control.c: 20: volatile double B[4][1]={ {0.000034315789206},
   233  0028A0  F55F               	dw	62815
   234  0028A2  3C36               	dw	15414
   235                           
   236                           ;final_control.c: 16: volatile double A[4][4]={ {1,0.006141536564009,0.000050448099760,0
      +                          .000000103339552},;final_control.c: 20: volatile double B[4][1]={ {0.000034315789206},
   237  0028A4  ED6D               	dw	60781
   238  0028A6  38B3               	dw	14515
   239                           
   240                           ;final_control.c: 16: volatile double A[4][4]={ {1,0.006141536564009,0.000050448099760,0
      +                          .000000103339552},;final_control.c: 20: volatile double B[4][1]={ {0.000034315789206},
   241  0028A8  BBBF               	dw	48063
   242  0028AA  3CE4               	dw	15588
   243                           
   244                           	psect	idataBANK2
   245  00266E                     __pidataBANK2:
   246                           	callstack 0
   247                           
   248                           ;initializer for _Co
   249  00266E  0000               	dw	0
   250  002670  3F80               	dw	16256
   251  002672  0000               	dw	0
   252  002674  0000               	dw	0
   253  002676  0000               	dw	0
   254  002678  0000               	dw	0
   255  00267A  0000               	dw	0
   256  00267C  0000               	dw	0
   257  00267E  0000               	dw	0
   258  002680  0000               	dw	0
   259  002682  0000               	dw	0
   260  002684  3F80               	dw	16256
   261  002686  0000               	dw	0
   262  002688  0000               	dw	0
   263  00268A  0000               	dw	0
   264  00268C  0000               	dw	0
   265  00268E  0000               	dw	0
   266  002690  0000               	dw	0
   267  002692  0000               	dw	0
   268  002694  0000               	dw	0
   269  002696  0000               	dw	0
   270  002698  3F80               	dw	16256
   271  00269A  0000               	dw	0
   272  00269C  0000               	dw	0
   273  00269E  0000               	dw	0
   274  0026A0  0000               	dw	0
   275  0026A2  0000               	dw	0
   276  0026A4  0000               	dw	0
   277  0026A6  0000               	dw	0
   278  0026A8  0000               	dw	0
   279  0026AA  0000               	dw	0
   280  0026AC  3F80               	dw	16256
   281                           
   282                           ;initializer for _C
   283  0026AE  0000               	dw	0
   284  0026B0  3F80               	dw	16256
   285  0026B2  0000               	dw	0
   286  0026B4  0000               	dw	0
   287  0026B6  0000               	dw	0
   288  0026B8  0000               	dw	0
   289  0026BA  0000               	dw	0
   290  0026BC  0000               	dw	0
   291  0026BE  0000               	dw	0
   292  0026C0  0000               	dw	0
   293  0026C2  0000               	dw	0
   294  0026C4  3F80               	dw	16256
   295  0026C6  0000               	dw	0
   296  0026C8  0000               	dw	0
   297  0026CA  0000               	dw	0
   298  0026CC  0000               	dw	0
   299  0026CE  0000               	dw	0
   300  0026D0  0000               	dw	0
   301  0026D2  0000               	dw	0
   302  0026D4  0000               	dw	0
   303  0026D6  0000               	dw	0
   304  0026D8  3F80               	dw	16256
   305  0026DA  0000               	dw	0
   306  0026DC  0000               	dw	0
   307  0026DE  0000               	dw	0
   308  0026E0  0000               	dw	0
   309  0026E2  0000               	dw	0
   310  0026E4  0000               	dw	0
   311  0026E6  0000               	dw	0
   312  0026E8  0000               	dw	0
   313  0026EA  0000               	dw	0
   314  0026EC  3F80               	dw	16256
   315                           
   316                           ;initializer for _Bo
   317                           ;final_control.c: 16: volatile double A[4][4]={ {1,0.006141536564009,0.000050448099760,0
      +                          .000000103339552},;final_control.c: 20: volatile double B[4][1]={ {0.000034315789206},;f
      +                          inal_control.c: 24: volatile double C[4][4]={ {1,0,0,0},;final_control.c: 28: volatile d
      +                          ouble D[4][1]={ {0},;final_control.c: 34: double Ao[4][4]={ {0.958494770240399,0.1045573
      +                          53964092,0,0},;final_control.c: 38: double Bo[4][5]={ {0.000591844723017,0.0415052297596
      +                          01,-0.098594051805029,0.000870011742836,0},
   318  0026EE  2607               	dw	9735
   319  0026F0  3A1B               	dw	14875
   320                           
   321                           ;final_control.c: 16: volatile double A[4][4]={ {1,0.006141536564009,0.000050448099760,0
      +                          .000000103339552},;final_control.c: 20: volatile double B[4][1]={ {0.000034315789206},;f
      +                          inal_control.c: 24: volatile double C[4][4]={ {1,0,0,0},;final_control.c: 28: volatile d
      +                          ouble D[4][1]={ {0},;final_control.c: 34: double Ao[4][4]={ {0.958494770240399,0.1045573
      +                          53964092,0,0},;final_control.c: 38: double Bo[4][5]={ {0.000591844723017,0.0415052297596
      +                          01,-0.098594051805029,0.000870011742836,0},
   322  0026F2  0163               	dw	355
   323  0026F4  3D2A               	dw	15658
   324  0026F6  EBAE               	dw	60334
   325  0026F8  BDC9               	dw	48585
   326                           
   327                           ;final_control.c: 16: volatile double A[4][4]={ {1,0.006141536564009,0.000050448099760,0
      +                          .000000103339552},;final_control.c: 20: volatile double B[4][1]={ {0.000034315789206},;f
      +                          inal_control.c: 24: volatile double C[4][4]={ {1,0,0,0},;final_control.c: 28: volatile d
      +                          ouble D[4][1]={ {0},;final_control.c: 34: double Ao[4][4]={ {0.958494770240399,0.1045573
      +                          53964092,0,0},;final_control.c: 38: double Bo[4][5]={ {0.000591844723017,0.0415052297596
      +                          01,-0.098594051805029,0.000870011742836,0},
   328  0026FA  1180               	dw	4480
   329  0026FC  3A64               	dw	14948
   330  0026FE  0000               	dw	0
   331  002700  0000               	dw	0
   332                           
   333                           ;final_control.c: 16: volatile double A[4][4]={ {1,0.006141536564009,0.000050448099760,0
      +                          .000000103339552},;final_control.c: 20: volatile double B[4][1]={ {0.000034315789206},;f
      +                          inal_control.c: 24: volatile double C[4][4]={ {1,0,0,0},;final_control.c: 28: volatile d
      +                          ouble D[4][1]={ {0},;final_control.c: 34: double Ao[4][4]={ {0.958494770240399,0.1045573
      +                          53964092,0,0},;final_control.c: 38: double Bo[4][5]={ {0.000591844723017,0.0415052297596
      +                          01,-0.098594051805029,0.000870011742836,0},
   334  002702  6787               	dw	26503
   335  002704  3C33               	dw	15411
   336                           
   337                           ;final_control.c: 16: volatile double A[4][4]={ {1,0.006141536564009,0.000050448099760,0
      +                          .000000103339552},;final_control.c: 20: volatile double B[4][1]={ {0.000034315789206},;f
      +                          inal_control.c: 24: volatile double C[4][4]={ {1,0,0,0},;final_control.c: 28: volatile d
      +                          ouble D[4][1]={ {0},;final_control.c: 34: double Ao[4][4]={ {0.958494770240399,0.1045573
      +                          53964092,0,0},;final_control.c: 38: double Bo[4][5]={ {0.000591844723017,0.0415052297596
      +                          01,-0.098594051805029,0.000870011742836,0},
   338  002706  222A               	dw	8746
   339  002708  3DD6               	dw	15830
   340                           
   341                           ;final_control.c: 16: volatile double A[4][4]={ {1,0.006141536564009,0.000050448099760,0
      +                          .000000103339552},;final_control.c: 20: volatile double B[4][1]={ {0.000034315789206},;f
      +                          inal_control.c: 24: volatile double C[4][4]={ {1,0,0,0},;final_control.c: 28: volatile d
      +                          ouble D[4][1]={ {0},;final_control.c: 34: double Ao[4][4]={ {0.958494770240399,0.1045573
      +                          53964092,0,0},;final_control.c: 38: double Bo[4][5]={ {0.000591844723017,0.0415052297596
      +                          01,-0.098594051805029,0.000870011742836,0},
   342  00270A  2FDF               	dw	12255
   343  00270C  3D24               	dw	15652
   344                           
   345                           ;final_control.c: 16: volatile double A[4][4]={ {1,0.006141536564009,0.000050448099760,0
      +                          .000000103339552},;final_control.c: 20: volatile double B[4][1]={ {0.000034315789206},;f
      +                          inal_control.c: 24: volatile double C[4][4]={ {1,0,0,0},;final_control.c: 28: volatile d
      +                          ouble D[4][1]={ {0},;final_control.c: 34: double Ao[4][4]={ {0.958494770240399,0.1045573
      +                          53964092,0,0},;final_control.c: 38: double Bo[4][5]={ {0.000591844723017,0.0415052297596
      +                          01,-0.098594051805029,0.000870011742836,0},
   346  00270E  DCBB               	dw	56507
   347  002710  3C83               	dw	15491
   348  002712  0000               	dw	0
   349  002714  0000               	dw	0
   350                           
   351                           ;final_control.c: 16: volatile double A[4][4]={ {1,0.006141536564009,0.000050448099760,0
      +                          .000000103339552},;final_control.c: 20: volatile double B[4][1]={ {0.000034315789206},;f
      +                          inal_control.c: 24: volatile double C[4][4]={ {1,0,0,0},;final_control.c: 28: volatile d
      +                          ouble D[4][1]={ {0},;final_control.c: 34: double Ao[4][4]={ {0.958494770240399,0.1045573
      +                          53964092,0,0},;final_control.c: 38: double Bo[4][5]={ {0.000591844723017,0.0415052297596
      +                          01,-0.098594051805029,0.000870011742836,0},
   352  002716  9557               	dw	38231
   353  002718  39FB               	dw	14843
   354  00271A  0000               	dw	0
   355  00271C  0000               	dw	0
   356  00271E  4445               	dw	17477
   357  002720  B849               	dw	47177
   358                           
   359                           ;final_control.c: 16: volatile double A[4][4]={ {1,0.006141536564009,0.000050448099760,0
      +                          .000000103339552},;final_control.c: 20: volatile double B[4][1]={ {0.000034315789206},;f
      +                          inal_control.c: 24: volatile double C[4][4]={ {1,0,0,0},;final_control.c: 28: volatile d
      +                          ouble D[4][1]={ {0},;final_control.c: 34: double Ao[4][4]={ {0.958494770240399,0.1045573
      +                          53964092,0,0},;final_control.c: 38: double Bo[4][5]={ {0.000591844723017,0.0415052297596
      +                          01,-0.098594051805029,0.000870011742836,0},
   360  002722  B2BB               	dw	45755
   361  002724  3D66               	dw	15718
   362  002726  6A1B               	dw	27163
   363  002728  BCE3               	dw	48355
   364                           
   365                           ;final_control.c: 16: volatile double A[4][4]={ {1,0.006141536564009,0.000050448099760,0
      +                          .000000103339552},;final_control.c: 20: volatile double B[4][1]={ {0.000034315789206},;f
      +                          inal_control.c: 24: volatile double C[4][4]={ {1,0,0,0},;final_control.c: 28: volatile d
      +                          ouble D[4][1]={ {0},;final_control.c: 34: double Ao[4][4]={ {0.958494770240399,0.1045573
      +                          53964092,0,0},;final_control.c: 38: double Bo[4][5]={ {0.000591844723017,0.0415052297596
      +                          01,-0.098594051805029,0.000870011742836,0},
   366  00272A  B7B1               	dw	47025
   367  00272C  3CDE               	dw	15582
   368  00272E  0000               	dw	0
   369  002730  0000               	dw	0
   370  002732  2C8E               	dw	11406
   371  002734  BB32               	dw	47922
   372                           
   373                           ;final_control.c: 16: volatile double A[4][4]={ {1,0.006141536564009,0.000050448099760,0
      +                          .000000103339552},;final_control.c: 20: volatile double B[4][1]={ {0.000034315789206},;f
      +                          inal_control.c: 24: volatile double C[4][4]={ {1,0,0,0},;final_control.c: 28: volatile d
      +                          ouble D[4][1]={ {0},;final_control.c: 34: double Ao[4][4]={ {0.958494770240399,0.1045573
      +                          53964092,0,0},;final_control.c: 38: double Bo[4][5]={ {0.000591844723017,0.0415052297596
      +                          01,-0.098594051805029,0.000870011742836,0},
   374  002736  8827               	dw	34855
   375  002738  3E61               	dw	15969
   376                           
   377                           ;final_control.c: 16: volatile double A[4][4]={ {1,0.006141536564009,0.000050448099760,0
      +                          .000000103339552},;final_control.c: 20: volatile double B[4][1]={ {0.000034315789206},;f
      +                          inal_control.c: 24: volatile double C[4][4]={ {1,0,0,0},;final_control.c: 28: volatile d
      +                          ouble D[4][1]={ {0},;final_control.c: 34: double Ao[4][4]={ {0.958494770240399,0.1045573
      +                          53964092,0,0},;final_control.c: 38: double Bo[4][5]={ {0.000591844723017,0.0415052297596
      +                          01,-0.098594051805029,0.000870011742836,0},
   378  00273A  C84F               	dw	51279
   379  00273C  3D58               	dw	15704
   380  0000                     _INTCONbits	set	4082
   381  0000                     _TRISCbits	set	3988
   382  0000                     _TXREG	set	4013
   383  0000                     _RCREG	set	4014
   384  0000                     _SPBRG	set	4015
   385  0000                     _RCIF	set	31989
   386  0000                     _TRMT	set	32097
   387  0000                     _TXEN	set	32101
   388  0000                     _CREN	set	32092
   389  0000                     _TRISC6	set	31910
   390  0000                     _TRISC7	set	31911
   391  0000                     _SPEN	set	32095
   392  0000                     _SYNC	set	32100
   393  0000                     _BRGH	set	32098
   394                           
   395                           	psect	smallconst
   396  001000                     __psmallconst:
   397                           	callstack 0
   398  001000  00                 	db	0
   399  001001                     STR_2:
   400  001001  43                 	db	67	;'C'
   401  001002  6F                 	db	111	;'o'
   402  001003  6D                 	db	109	;'m'
   403  001004  69                 	db	105	;'i'
   404  001005  65                 	db	101	;'e'
   405  001006  6E                 	db	110	;'n'
   406  001007  7A                 	db	122	;'z'
   407  001008  61                 	db	97	;'a'
   408  001009  20                 	db	32
   409  00100A  6C                 	db	108	;'l'
   410  00100B  61                 	db	97	;'a'
   411  00100C  20                 	db	32
   412  00100D  72                 	db	114	;'r'
   413  00100E  75                 	db	117	;'u'
   414  00100F  74                 	db	116	;'t'
   415  001010  69                 	db	105	;'i'
   416  001011  6E                 	db	110	;'n'
   417  001012  61                 	db	97	;'a'
   418  001013  20                 	db	32
   419  001014  64                 	db	100	;'d'
   420  001015  65                 	db	101	;'e'
   421  001016  20                 	db	32
   422  001017  69                 	db	105	;'i'
   423  001018  6E                 	db	110	;'n'
   424  001019  74                 	db	116	;'t'
   425  00101A  65                 	db	101	;'e'
   426  00101B  72                 	db	114	;'r'
   427  00101C  72                 	db	114	;'r'
   428  00101D  75                 	db	117	;'u'
   429  00101E  70                 	db	112	;'p'
   430  00101F  63                 	db	99	;'c'
   431  001020  69                 	db	105	;'i'
   432  001021  6F                 	db	111	;'o'
   433  001022  6E                 	db	110	;'n'
   434  001023  2E                 	db	46
   435  001024  2E                 	db	46
   436  001025  2E                 	db	46
   437  001026  0D                 	db	13
   438  001027  0A                 	db	10
   439  001028  00                 	db	0
   440  001029                     STR_1:
   441  001029  53                 	db	83	;'S'
   442  00102A  74                 	db	116	;'t'
   443  00102B  61                 	db	97	;'a'
   444  00102C  72                 	db	114	;'r'
   445  00102D  74                 	db	116	;'t'
   446  00102E  69                 	db	105	;'i'
   447  00102F  6E                 	db	110	;'n'
   448  001030  67                 	db	103	;'g'
   449  001031  20                 	db	32
   450  001032  64                 	db	100	;'d'
   451  001033  65                 	db	101	;'e'
   452  001034  76                 	db	118	;'v'
   453  001035  69                 	db	105	;'i'
   454  001036  63                 	db	99	;'c'
   455  001037  65                 	db	101	;'e'
   456  001038  2E                 	db	46
   457  001039  2E                 	db	46
   458  00103A  2E                 	db	46
   459  00103B  20                 	db	32
   460  00103C  0D                 	db	13
   461  00103D  0A                 	db	10
   462  00103E  00                 	db	0
   463  00103F  00                 	db	0	; dummy byte at the end
   464  0000                     
   465                           ; #config settings
   466                           
   467                           	psect	cinit
   468  00273E                     __pcinit:
   469                           	callstack 0
   470  00273E                     start_initialization:
   471                           	callstack 0
   472  00273E                     __initialization:
   473                           	callstack 0
   474                           
   475                           ; Initialize objects allocated to BANK2 (208 bytes)
   476                           ; load TBLPTR registers with __pidataBANK2
   477  00273E  0E6E               	movlw	low __pidataBANK2
   478  002740  6EF6               	movwf	tblptrl,c
   479  002742  0E26               	movlw	high __pidataBANK2
   480  002744  6EF7               	movwf	tblptrh,c
   481  002746  0E00               	movlw	low (__pidataBANK2 shr (0+16))
   482  002748  6EF8               	movwf	tblptru,c
   483  00274A  EE02  F000         	lfsr	0,__pdataBANK2
   484  00274E  EE10 F0D0          	lfsr	1,208
   485  002752                     copy_data0:
   486  002752  0009               	tblrd		*+
   487  002754  CFF5 FFEE          	movff	tablat,postinc0
   488  002758  50E5               	movf	postdec1,w,c
   489  00275A  50E1               	movf	fsr1l,w,c
   490  00275C  E1FA               	bnz	copy_data0
   491                           
   492                           ; Initialize objects allocated to BANK1 (176 bytes)
   493                           ; load TBLPTR registers with __pidataBANK1
   494  00275E  0EFC               	movlw	low __pidataBANK1
   495  002760  6EF6               	movwf	tblptrl,c
   496  002762  0E27               	movlw	high __pidataBANK1
   497  002764  6EF7               	movwf	tblptrh,c
   498  002766  0E00               	movlw	low (__pidataBANK1 shr (0+16))
   499  002768  6EF8               	movwf	tblptru,c
   500  00276A  EE01  F000         	lfsr	0,__pdataBANK1
   501  00276E  EE10 F0B0          	lfsr	1,176
   502  002772                     copy_data1:
   503  002772  0009               	tblrd		*+
   504  002774  CFF5 FFEE          	movff	tablat,postinc0
   505  002778  50E5               	movf	postdec1,w,c
   506  00277A  50E1               	movf	fsr1l,w,c
   507  00277C  E1FA               	bnz	copy_data1
   508                           
   509                           ; Initialize objects allocated to BANK0 (8 bytes)
   510                           ; load TBLPTR registers with __pidataBANK0
   511  00277E  0EF2               	movlw	low __pidataBANK0
   512  002780  6EF6               	movwf	tblptrl,c
   513  002782  0E29               	movlw	high __pidataBANK0
   514  002784  6EF7               	movwf	tblptrh,c
   515  002786  0E00               	movlw	low (__pidataBANK0 shr (0+16))
   516  002788  6EF8               	movwf	tblptru,c
   517  00278A  EE00  F0F4         	lfsr	0,__pdataBANK0
   518  00278E  EE10 F008          	lfsr	1,8
   519  002792                     copy_data2:
   520  002792  0009               	tblrd		*+
   521  002794  CFF5 FFEE          	movff	tablat,postinc0
   522  002798  50E5               	movf	postdec1,w,c
   523  00279A  50E1               	movf	fsr1l,w,c
   524  00279C  E1FA               	bnz	copy_data2
   525                           
   526                           ; Initialize objects allocated to COMRAM (4 bytes)
   527                           ; load TBLPTR registers with __pidataCOMRAM
   528  00279E  0E06               	movlw	low __pidataCOMRAM
   529  0027A0  6EF6               	movwf	tblptrl,c
   530  0027A2  0E2A               	movlw	high __pidataCOMRAM
   531  0027A4  6EF7               	movwf	tblptrh,c
   532  0027A6  0E00               	movlw	low (__pidataCOMRAM shr (0+16))
   533  0027A8  6EF8               	movwf	tblptru,c
   534  0027AA  EE00  F07B         	lfsr	0,__pdataCOMRAM
   535  0027AE  EE10 F004          	lfsr	1,4
   536  0027B2                     copy_data3:
   537  0027B2  0009               	tblrd		*+
   538  0027B4  CFF5 FFEE          	movff	tablat,postinc0
   539  0027B8  50E5               	movf	postdec1,w,c
   540  0027BA  50E1               	movf	fsr1l,w,c
   541  0027BC  E1FA               	bnz	copy_data3
   542                           
   543                           ; Clear objects allocated to BANK3 (80 bytes)
   544  0027BE  EE03  F000         	lfsr	0,__pbssBANK3
   545  0027C2  0E50               	movlw	80
   546  0027C4                     clear_0:
   547  0027C4  6AEE               	clrf	postinc0,c
   548  0027C6  06E8               	decf	wreg,f,c
   549  0027C8  E1FD               	bnz	clear_0
   550                           
   551                           ; Clear objects allocated to BANK1 (32 bytes)
   552  0027CA  EE01  F0B0         	lfsr	0,__pbssBANK1
   553  0027CE  0E20               	movlw	32
   554  0027D0                     clear_1:
   555  0027D0  6AEE               	clrf	postinc0,c
   556  0027D2  06E8               	decf	wreg,f,c
   557  0027D4  E1FD               	bnz	clear_1
   558                           
   559                           ; Clear objects allocated to BANK0 (116 bytes)
   560  0027D6  EE00  F080         	lfsr	0,__pbssBANK0
   561  0027DA  0E74               	movlw	116
   562  0027DC                     clear_2:
   563  0027DC  6AEE               	clrf	postinc0,c
   564  0027DE  06E8               	decf	wreg,f,c
   565  0027E0  E1FD               	bnz	clear_2
   566                           
   567                           ; Clear objects allocated to COMRAM (56 bytes)
   568  0027E2  EE00  F043         	lfsr	0,__pbssCOMRAM
   569  0027E6  0E38               	movlw	56
   570  0027E8                     clear_3:
   571  0027E8  6AEE               	clrf	postinc0,c
   572  0027EA  06E8               	decf	wreg,f,c
   573  0027EC  E1FD               	bnz	clear_3
   574  0027EE                     end_of_initialization:
   575                           	callstack 0
   576  0027EE                     __end_of__initialization:
   577                           	callstack 0
   578  0027EE  0E00               	movlw	low (__Lsmallconst shr (0+16))
   579  0027F0  6EF8               	movwf	tblptru,c
   580  0027F2  0E10               	movlw	high __Lsmallconst
   581  0027F4  6EF7               	movwf	tblptrh,c
   582  0027F6  0100               	movlb	0
   583  0027F8  EF56  F014         	goto	_main	;jump to C main() function
   584                           
   585                           	psect	bssCOMRAM
   586  000043                     __pbssCOMRAM:
   587                           	callstack 0
   588  000043                     _count:
   589                           	callstack 0
   590  000043                     	ds	2
   591  000045                     _fM1:
   592                           	callstack 0
   593  000045                     	ds	2
   594  000047                     _Xo_0:
   595                           	callstack 0
   596  000047                     	ds	16
   597  000057                     _Y:
   598                           	callstack 0
   599  000057                     	ds	16
   600  000067                     _X_0:
   601                           	callstack 0
   602  000067                     	ds	16
   603  000077                     _aux_3:
   604                           	callstack 0
   605  000077                     	ds	4
   606                           
   607                           	psect	dataCOMRAM
   608  00007B                     __pdataCOMRAM:
   609                           	callstack 0
   610  00007B                     _U:
   611                           	callstack 0
   612  00007B                     	ds	4
   613                           
   614                           	psect	bssBANK0
   615  000080                     __pbssBANK0:
   616                           	callstack 0
   617  000080                     _inputObs:
   618                           	callstack 0
   619  000080                     	ds	20
   620  000094                     _aux_4:
   621                           	callstack 0
   622  000094                     	ds	16
   623  0000A4                     _aux_2:
   624                           	callstack 0
   625  0000A4                     	ds	16
   626  0000B4                     _aux_1:
   627                           	callstack 0
   628  0000B4                     	ds	16
   629  0000C4                     _Yo:
   630                           	callstack 0
   631  0000C4                     	ds	16
   632  0000D4                     _Xo_1:
   633                           	callstack 0
   634  0000D4                     	ds	16
   635  0000E4                     _X_1:
   636                           	callstack 0
   637  0000E4                     	ds	16
   638                           
   639                           	psect	dataBANK0
   640  0000F4                     __pdataBANK0:
   641                           	callstack 0
   642  0000F4                     _input:
   643                           	callstack 0
   644  0000F4                     	ds	4
   645  0000F8                     _ref_by_Nbard:
   646                           	callstack 0
   647  0000F8                     	ds	4
   648                           
   649                           	psect	bssBANK1
   650  0001B0                     __pbssBANK1:
   651                           	callstack 0
   652  0001B0                     _D:
   653                           	callstack 0
   654  0001B0                     	ds	16
   655  0001C0                     _aux_5:
   656                           	callstack 0
   657  0001C0                     	ds	16
   658                           
   659                           	psect	dataBANK1
   660  000100                     __pdataBANK1:
   661                           	callstack 0
   662  000100                     _Kd:
   663                           	callstack 0
   664  000100                     	ds	16
   665  000110                     _Ao:
   666                           	callstack 0
   667  000110                     	ds	64
   668  000150                     _A:
   669                           	callstack 0
   670  000150                     	ds	64
   671  000190                     _nKd:
   672                           	callstack 0
   673  000190                     	ds	16
   674  0001A0                     _B:
   675                           	callstack 0
   676  0001A0                     	ds	16
   677                           
   678                           	psect	dataBANK2
   679  000200                     __pdataBANK2:
   680                           	callstack 0
   681  000200                     _Co:
   682                           	callstack 0
   683  000200                     	ds	64
   684  000240                     _C:
   685                           	callstack 0
   686  000240                     	ds	64
   687  000280                     _Bo:
   688                           	callstack 0
   689  000280                     	ds	80
   690                           
   691                           	psect	bssBANK3
   692  000300                     __pbssBANK3:
   693                           	callstack 0
   694  000300                     _Do:
   695                           	callstack 0
   696  000300                     	ds	80
   697                           
   698                           	psect	cstackCOMRAM
   699  000001                     __pcstackCOMRAM:
   700                           	callstack 0
   701  000001                     ?___wmul:
   702                           	callstack 0
   703  000001                     ?___fladd:
   704                           	callstack 0
   705  000001                     ?___aldiv:
   706                           	callstack 0
   707  000001                     UART_Write@data:
   708                           	callstack 0
   709  000001                     ___wmul@multiplier:
   710                           	callstack 0
   711  000001                     ___aldiv@dividend:
   712                           	callstack 0
   713  000001                     ___fladd@b:
   714                           	callstack 0
   715                           
   716                           ; 4 bytes @ 0x0
   717  000001                     	ds	1
   718  000002                     UART_Write_Text@text:
   719                           	callstack 0
   720  000002                     sendDataVisualizer@x:
   721                           	callstack 0
   722                           
   723                           ; 2 bytes @ 0x1
   724  000002                     	ds	1
   725  000003                     ___wmul@multiplicand:
   726                           	callstack 0
   727                           
   728                           ; 2 bytes @ 0x2
   729  000003                     	ds	1
   730  000004                     ??_UART_Write_Text:
   731  000004                     sendDataVisualizer@x_343:
   732                           	callstack 0
   733                           
   734                           ; 2 bytes @ 0x3
   735  000004                     	ds	1
   736  000005                     ___wmul@product:
   737                           	callstack 0
   738  000005                     ___aldiv@divisor:
   739                           	callstack 0
   740  000005                     ___fladd@a:
   741                           	callstack 0
   742                           
   743                           ; 4 bytes @ 0x4
   744  000005                     	ds	1
   745  000006                     UART_Write_Text@i:
   746                           	callstack 0
   747  000006                     sendDataVisualizer@x_344:
   748                           	callstack 0
   749                           
   750                           ; 2 bytes @ 0x5
   751  000006                     	ds	1
   752  000007                     ?___flmul:
   753                           	callstack 0
   754  000007                     ___flmul@b:
   755                           	callstack 0
   756                           
   757                           ; 4 bytes @ 0x6
   758  000007                     	ds	1
   759  000008                     sendDataVisualizer@x_345:
   760                           	callstack 0
   761                           
   762                           ; 2 bytes @ 0x7
   763  000008                     	ds	1
   764  000009                     ??___fladd:
   765  000009                     ___aldiv@counter:
   766                           	callstack 0
   767                           
   768                           ; 1 bytes @ 0x8
   769  000009                     	ds	1
   770  00000A                     ___aldiv@sign:
   771                           	callstack 0
   772  00000A                     sendDataVisualizer@x_346:
   773                           	callstack 0
   774                           
   775                           ; 2 bytes @ 0x9
   776  00000A                     	ds	1
   777  00000B                     ___aldiv@quotient:
   778                           	callstack 0
   779  00000B                     ___flmul@a:
   780                           	callstack 0
   781                           
   782                           ; 4 bytes @ 0xA
   783  00000B                     	ds	1
   784  00000C                     sendDataVisualizer@x_347:
   785                           	callstack 0
   786                           
   787                           ; 2 bytes @ 0xB
   788  00000C                     	ds	1
   789  00000D                     ___fladd@signs:
   790                           	callstack 0
   791                           
   792                           ; 1 bytes @ 0xC
   793  00000D                     	ds	1
   794  00000E                     ___fladd@aexp:
   795                           	callstack 0
   796  00000E                     sendDataVisualizer@x_348:
   797                           	callstack 0
   798                           
   799                           ; 2 bytes @ 0xD
   800  00000E                     	ds	1
   801  00000F                     ??___flmul:
   802  00000F                     ___fladd@bexp:
   803                           	callstack 0
   804  00000F                     UART_Init@baudrate:
   805                           	callstack 0
   806                           
   807                           ; 4 bytes @ 0xE
   808  00000F                     	ds	1
   809  000010                     ___fladd@grs:
   810                           	callstack 0
   811  000010                     sendDataVisualizer@x_349:
   812                           	callstack 0
   813                           
   814                           ; 2 bytes @ 0xF
   815  000010                     	ds	1
   816  000011                     matrix_sum_c1@M1:
   817                           	callstack 0
   818                           
   819                           ; 2 bytes @ 0x10
   820  000011                     	ds	1
   821  000012                     sendDataVisualizer@ptrPlanta:
   822                           	callstack 0
   823                           
   824                           ; 2 bytes @ 0x11
   825  000012                     	ds	1
   826  000013                     ??_UART_Init:
   827  000013                     ___flmul@sign:
   828                           	callstack 0
   829  000013                     matrix_sum_c1@M2:
   830                           	callstack 0
   831                           
   832                           ; 2 bytes @ 0x12
   833  000013                     	ds	1
   834  000014                     sendDataVisualizer@ptrObs:
   835                           	callstack 0
   836  000014                     ___flmul@grs:
   837                           	callstack 0
   838                           
   839                           ; 4 bytes @ 0x13
   840  000014                     	ds	1
   841  000015                     matrix_sum_c1@res:
   842                           	callstack 0
   843                           
   844                           ; 2 bytes @ 0x14
   845  000015                     	ds	2
   846  000017                     ??_matrix_sum_c1:
   847                           
   848                           ; 1 bytes @ 0x16
   849  000017                     	ds	1
   850  000018                     ___flmul@aexp:
   851                           	callstack 0
   852                           
   853                           ; 1 bytes @ 0x17
   854  000018                     	ds	1
   855  000019                     ___flmul@bexp:
   856                           	callstack 0
   857                           
   858                           ; 1 bytes @ 0x18
   859  000019                     	ds	1
   860  00001A                     ___flmul@prod:
   861                           	callstack 0
   862                           
   863                           ; 4 bytes @ 0x19
   864  00001A                     	ds	1
   865  00001B                     UART_Init@x:
   866                           	callstack 0
   867                           
   868                           ; 2 bytes @ 0x1A
   869  00001B                     	ds	3
   870  00001E                     ___flmul@temp:
   871                           	callstack 0
   872                           
   873                           ; 2 bytes @ 0x1D
   874  00001E                     	ds	2
   875  000020                     ___asfladd@f1p:
   876                           	callstack 0
   877                           
   878                           ; 2 bytes @ 0x1F
   879  000020                     	ds	2
   880  000022                     ___asfladd@f2:
   881                           	callstack 0
   882                           
   883                           ; 4 bytes @ 0x21
   884  000022                     	ds	1
   885  000023                     matrix_sum_c1@i:
   886                           	callstack 0
   887                           
   888                           ; 2 bytes @ 0x22
   889  000023                     	ds	2
   890  000025                     matrix_sum_c1@j:
   891                           	callstack 0
   892                           
   893                           ; 2 bytes @ 0x24
   894  000025                     	ds	1
   895  000026                     matrix_multiply_c1_c1@M1:
   896                           	callstack 0
   897  000026                     matrix_multiply_c4_c1@M1:
   898                           	callstack 0
   899  000026                     matrix_multiply_c5_c1@M1:
   900                           	callstack 0
   901                           
   902                           ; 2 bytes @ 0x25
   903  000026                     	ds	2
   904  000028                     matrix_multiply_c1_c1@M2:
   905                           	callstack 0
   906  000028                     matrix_multiply_c4_c1@M2:
   907                           	callstack 0
   908  000028                     matrix_multiply_c5_c1@M2:
   909                           	callstack 0
   910                           
   911                           ; 2 bytes @ 0x27
   912  000028                     	ds	2
   913  00002A                     matrix_multiply_c1_c1@res:
   914                           	callstack 0
   915  00002A                     matrix_multiply_c4_c1@res:
   916                           	callstack 0
   917  00002A                     matrix_multiply_c5_c1@res:
   918                           	callstack 0
   919                           
   920                           ; 2 bytes @ 0x29
   921  00002A                     	ds	2
   922  00002C                     ??_matrix_multiply_c4_c1:
   923  00002C                     ??_matrix_multiply_c1_c1:
   924  00002C                     ??_matrix_multiply_c5_c1:
   925                           
   926                           ; 1 bytes @ 0x2B
   927  00002C                     	ds	12
   928  000038                     matrix_multiply_c5_c1@i:
   929                           	callstack 0
   930                           
   931                           ; 2 bytes @ 0x37
   932  000038                     	ds	2
   933  00003A                     matrix_multiply_c1_c1@i:
   934                           	callstack 0
   935  00003A                     matrix_multiply_c4_c1@i:
   936                           	callstack 0
   937  00003A                     matrix_multiply_c5_c1@k:
   938                           	callstack 0
   939                           
   940                           ; 2 bytes @ 0x39
   941  00003A                     	ds	2
   942  00003C                     matrix_multiply_c1_c1@k:
   943                           	callstack 0
   944  00003C                     matrix_multiply_c4_c1@k:
   945                           	callstack 0
   946  00003C                     matrix_multiply_c5_c1@j:
   947                           	callstack 0
   948                           
   949                           ; 2 bytes @ 0x3B
   950  00003C                     	ds	2
   951  00003E                     matrix_multiply_c1_c1@j:
   952                           	callstack 0
   953  00003E                     matrix_multiply_c4_c1@j:
   954                           	callstack 0
   955                           
   956                           ; 2 bytes @ 0x3D
   957  00003E                     	ds	2
   958  000040                     ??_main:
   959                           
   960                           ; 1 bytes @ 0x3F
   961  000040                     	ds	1
   962  000041                     main@muestras:
   963                           	callstack 0
   964                           
   965                           ; 2 bytes @ 0x40
   966  000041                     	ds	2
   967                           
   968 ;;
   969 ;;Main: autosize = 0, tempsize = 1, incstack = 0, save=0
   970 ;;
   971 ;; *************** function _main *****************
   972 ;; Defined at:
   973 ;;		line 97 in file "final_control.c"
   974 ;; Parameters:    Size  Location     Type
   975 ;;		None
   976 ;; Auto vars:     Size  Location     Type
   977 ;;  muestras        2   64[COMRAM] int 
   978 ;; Return value:  Size  Location     Type
   979 ;;                  1    wreg      void 
   980 ;; Registers used:
   981 ;;		wreg, fsr2l, fsr2h, status,2, status,0, tblptrl, tblptrh, tblptru, prodl, prodh, cstack
   982 ;; Tracked objects:
   983 ;;		On entry : 0/0
   984 ;;		On exit  : 0/0
   985 ;;		Unchanged: 0/0
   986 ;; Data sizes:     COMRAM   BANK0   BANK1   BANK2   BANK3   BANK4   BANK5   BANK6   BANK7   BANK8   BANK9  BANK10  BANK1
      +1  BANK12  BANK13  BANK14  BANK15
   987 ;;      Params:         0       0       0       0       0       0       0       0       0       0       0       0       
      +0       0       0       0       0
   988 ;;      Locals:         2       0       0       0       0       0       0       0       0       0       0       0       
      +0       0       0       0       0
   989 ;;      Temps:          1       0       0       0       0       0       0       0       0       0       0       0       
      +0       0       0       0       0
   990 ;;      Totals:         3       0       0       0       0       0       0       0       0       0       0       0       
      +0       0       0       0       0
   991 ;;Total ram usage:        3 bytes
   992 ;; Hardware stack levels required when called:    4
   993 ;; This function calls:
   994 ;;		_INTERRUPT_configurar
   995 ;;		_PORT_configurar
   996 ;;		_UART_Init
   997 ;;		_UART_Write_Text
   998 ;;		_plantaPLUSobservador
   999 ;;		_sendDataVisualizer
  1000 ;; This function is called by:
  1001 ;;		Startup code after reset
  1002 ;; This function uses a non-reentrant model
  1003 ;;
  1004                           
  1005                           	psect	text0
  1006  0028AC                     __ptext0:
  1007                           	callstack 0
  1008  0028AC                     _main:
  1009                           	callstack 27
  1010  0028AC                     
  1011                           ;final_control.c: 98:     int muestras=1400;
  1012  0028AC  0E05               	movlw	5
  1013  0028AE  6E42               	movwf	(main@muestras+1)^0,c
  1014  0028B0  0E78               	movlw	120
  1015  0028B2  6E41               	movwf	main@muestras^0,c
  1016  0028B4                     
  1017                           ;final_control.c: 100:     PORT_configurar();
  1018  0028B4  ECFD  F014         	call	_PORT_configurar	;wreg free
  1019  0028B8                     
  1020                           ;final_control.c: 101:     UART_Init(9600);
  1021  0028B8  0E80               	movlw	128
  1022  0028BA  6E0F               	movwf	UART_Init@baudrate^0,c
  1023  0028BC  0E25               	movlw	37
  1024  0028BE  6E10               	movwf	(UART_Init@baudrate+1)^0,c
  1025  0028C0  0E00               	movlw	0
  1026  0028C2  6E11               	movwf	(UART_Init@baudrate+2)^0,c
  1027  0028C4  0E00               	movlw	0
  1028  0028C6  6E12               	movwf	(UART_Init@baudrate+3)^0,c
  1029  0028C8  EC1F  F012         	call	_UART_Init	;wreg free
  1030  0028CC                     
  1031                           ;final_control.c: 102:     UART_Write_Text("Starting device... \r\n");
  1032  0028CC  0E29               	movlw	low STR_1
  1033  0028CE  6E02               	movwf	UART_Write_Text@text^0,c
  1034  0028D0  0E10               	movlw	high STR_1
  1035  0028D2  6E03               	movwf	(UART_Write_Text@text+1)^0,c
  1036  0028D4  EC8D  F014         	call	_UART_Write_Text	;wreg free
  1037  0028D8                     
  1038                           ;final_control.c: 103:     UART_Write_Text("Comienza la rutina de interrupcion...\r\n");
  1039  0028D8  0E01               	movlw	low STR_2
  1040  0028DA  6E02               	movwf	UART_Write_Text@text^0,c
  1041  0028DC  0E10               	movlw	high STR_2
  1042  0028DE  6E03               	movwf	(UART_Write_Text@text+1)^0,c
  1043  0028E0  EC8D  F014         	call	_UART_Write_Text	;wreg free
  1044  0028E4                     
  1045                           ;final_control.c: 104:     INTERRUPT_configurar();
  1046  0028E4  EC00  F015         	call	_INTERRUPT_configurar	;wreg free
  1047                           
  1048                           ;final_control.c: 105:     while(count<muestras){
  1049  0028E8  EF7C  F014         	goto	l2663
  1050  0028EC                     l2657:
  1051                           
  1052                           ;final_control.c: 106:         plantaPLUSobservador();
  1053  0028EC  EC95  F00C         	call	_plantaPLUSobservador	;wreg free
  1054  0028F0                     
  1055                           ;final_control.c: 108:         sendDataVisualizer();
  1056  0028F0  ECCE  F00D         	call	_sendDataVisualizer	;wreg free
  1057  0028F4                     
  1058                           ;final_control.c: 110:         count++;
  1059  0028F4  4A43               	infsnz	_count^0,f,c	;volatile
  1060  0028F6  2A44               	incf	(_count+1)^0,f,c	;volatile
  1061  0028F8                     l2663:
  1062                           
  1063                           ;final_control.c: 105:     while(count<muestras){
  1064  0028F8  5041               	movf	main@muestras^0,w,c
  1065  0028FA  5C43               	subwf	_count^0,w,c	;volatile
  1066  0028FC  5044               	movf	(_count+1)^0,w,c	;volatile
  1067  0028FE  0A80               	xorlw	128
  1068  002900  6E40               	movwf	??_main^0,c
  1069  002902  5042               	movf	(main@muestras+1)^0,w,c
  1070  002904  0A80               	xorlw	128
  1071  002906  5840               	subwfb	??_main^0,w,c
  1072  002908  A0D8               	btfss	status,0,c
  1073  00290A  EF89  F014         	goto	u1951
  1074  00290E  EF8B  F014         	goto	u1950
  1075  002912                     u1951:
  1076  002912  EF76  F014         	goto	l2657
  1077  002916                     u1950:
  1078  002916  EF00  F000         	goto	start
  1079  00291A                     __end_of_main:
  1080                           	callstack 0
  1081                           
  1082 ;; *************** function _sendDataVisualizer *****************
  1083 ;; Defined at:
  1084 ;;		line 310 in file "final_control.c"
  1085 ;; Parameters:    Size  Location     Type
  1086 ;;		None
  1087 ;; Auto vars:     Size  Location     Type
  1088 ;;  x               2   15[COMRAM] int 
  1089 ;;  x               2   13[COMRAM] int 
  1090 ;;  x               2   11[COMRAM] int 
  1091 ;;  x               2    9[COMRAM] int 
  1092 ;;  x               2    7[COMRAM] int 
  1093 ;;  x               2    5[COMRAM] int 
  1094 ;;  x               2    3[COMRAM] int 
  1095 ;;  x               2    1[COMRAM] int 
  1096 ;;  ptrObs          2   19[COMRAM] PTR unsigned char 
  1097 ;;		 -> Yo(16), 
  1098 ;;  ptrPlanta       2   17[COMRAM] PTR unsigned char 
  1099 ;;		 -> Y(16), 
  1100 ;; Return value:  Size  Location     Type
  1101 ;;                  1    wreg      void 
  1102 ;; Registers used:
  1103 ;;		wreg, fsr2l, fsr2h, status,2, status,0, cstack
  1104 ;; Tracked objects:
  1105 ;;		On entry : 0/0
  1106 ;;		On exit  : 0/0
  1107 ;;		Unchanged: 0/0
  1108 ;; Data sizes:     COMRAM   BANK0   BANK1   BANK2   BANK3   BANK4   BANK5   BANK6   BANK7   BANK8   BANK9  BANK10  BANK1
      +1  BANK12  BANK13  BANK14  BANK15
  1109 ;;      Params:         0       0       0       0       0       0       0       0       0       0       0       0       
      +0       0       0       0       0
  1110 ;;      Locals:        20       0       0       0       0       0       0       0       0       0       0       0       
      +0       0       0       0       0
  1111 ;;      Temps:          0       0       0       0       0       0       0       0       0       0       0       0       
      +0       0       0       0       0
  1112 ;;      Totals:        20       0       0       0       0       0       0       0       0       0       0       0       
      +0       0       0       0       0
  1113 ;;Total ram usage:       20 bytes
  1114 ;; Hardware stack levels used:    1
  1115 ;; Hardware stack levels required when called:    1
  1116 ;; This function calls:
  1117 ;;		_UART_Write
  1118 ;; This function is called by:
  1119 ;;		_main
  1120 ;; This function uses a non-reentrant model
  1121 ;;
  1122                           
  1123                           	psect	text1
  1124  001B9C                     __ptext1:
  1125                           	callstack 0
  1126  001B9C                     _sendDataVisualizer:
  1127                           	callstack 29
  1128  001B9C                     
  1129                           ;final_control.c: 311:     char* ptrPlanta;;final_control.c: 312:     char* ptrObs;;fina
      +                          l_control.c: 313:     ptrPlanta=(char *) & Y[0][0];
  1130  001B9C  0E57               	movlw	low _Y
  1131  001B9E  6E12               	movwf	sendDataVisualizer@ptrPlanta^0,c
  1132  001BA0  0E00               	movlw	high _Y
  1133  001BA2  6E13               	movwf	(sendDataVisualizer@ptrPlanta+1)^0,c
  1134                           
  1135                           ;final_control.c: 314:     ptrObs=(char *) & Yo[0][0];
  1136  001BA4  0EC4               	movlw	low _Yo
  1137  001BA6  6E14               	movwf	sendDataVisualizer@ptrObs^0,c
  1138  001BA8  0E00               	movlw	high _Yo
  1139  001BAA  6E15               	movwf	(sendDataVisualizer@ptrObs+1)^0,c
  1140  001BAC                     
  1141                           ;final_control.c: 315:     UART_Write(0x03);
  1142  001BAC  0E03               	movlw	3
  1143  001BAE  ECEE  F014         	call	_UART_Write
  1144  001BB2                     
  1145                           ;final_control.c: 317:     for (int x=0;x<sizeof(Y[0][0]);x++){
  1146  001BB2  0E00               	movlw	0
  1147  001BB4  6E03               	movwf	(sendDataVisualizer@x+1)^0,c
  1148  001BB6  0E00               	movlw	0
  1149  001BB8  6E02               	movwf	sendDataVisualizer@x^0,c
  1150  001BBA                     l2525:
  1151                           
  1152                           ;final_control.c: 318:         UART_Write(*(ptrPlanta++));
  1153  001BBA  C012  FFD9         	movff	sendDataVisualizer@ptrPlanta,fsr2l
  1154  001BBE  C013  FFDA         	movff	sendDataVisualizer@ptrPlanta+1,fsr2h
  1155  001BC2  50DF               	movf	indf2,w,c
  1156  001BC4  ECEE  F014         	call	_UART_Write
  1157  001BC8  4A12               	infsnz	sendDataVisualizer@ptrPlanta^0,f,c
  1158  001BCA  2A13               	incf	(sendDataVisualizer@ptrPlanta+1)^0,f,c
  1159  001BCC                     
  1160                           ;final_control.c: 319:     };
  1161  001BCC  4A02               	infsnz	sendDataVisualizer@x^0,f,c
  1162  001BCE  2A03               	incf	(sendDataVisualizer@x+1)^0,f,c
  1163  001BD0  5003               	movf	(sendDataVisualizer@x+1)^0,w,c
  1164  001BD2  E109               	bnz	u1870
  1165  001BD4  0E04               	movlw	4
  1166  001BD6  5C02               	subwf	sendDataVisualizer@x^0,w,c
  1167  001BD8  A0D8               	btfss	status,0,c
  1168  001BDA  EFF1  F00D         	goto	u1871
  1169  001BDE  EFF3  F00D         	goto	u1870
  1170  001BE2                     u1871:
  1171  001BE2  EFDD  F00D         	goto	l2525
  1172  001BE6                     u1870:
  1173  001BE6                     
  1174                           ;final_control.c: 320:     ptrPlanta=(char *) & Y[1][0];
  1175  001BE6  0E5B               	movlw	low (_Y+4)
  1176  001BE8  6E12               	movwf	sendDataVisualizer@ptrPlanta^0,c
  1177  001BEA  0E00               	movlw	high (_Y+4)
  1178  001BEC  6E13               	movwf	(sendDataVisualizer@ptrPlanta+1)^0,c
  1179  001BEE                     
  1180                           ;final_control.c: 321:     for (int x=0;x<sizeof(Y[1][0]);x++){
  1181  001BEE  0E00               	movlw	0
  1182  001BF0  6E05               	movwf	(sendDataVisualizer@x_343+1)^0,c
  1183  001BF2  0E00               	movlw	0
  1184  001BF4  6E04               	movwf	sendDataVisualizer@x_343^0,c
  1185  001BF6                     l2541:
  1186                           
  1187                           ;final_control.c: 322:         UART_Write(*(ptrPlanta++));
  1188  001BF6  C012  FFD9         	movff	sendDataVisualizer@ptrPlanta,fsr2l
  1189  001BFA  C013  FFDA         	movff	sendDataVisualizer@ptrPlanta+1,fsr2h
  1190  001BFE  50DF               	movf	indf2,w,c
  1191  001C00  ECEE  F014         	call	_UART_Write
  1192  001C04  4A12               	infsnz	sendDataVisualizer@ptrPlanta^0,f,c
  1193  001C06  2A13               	incf	(sendDataVisualizer@ptrPlanta+1)^0,f,c
  1194  001C08                     
  1195                           ;final_control.c: 323:     };
  1196  001C08  4A04               	infsnz	sendDataVisualizer@x_343^0,f,c
  1197  001C0A  2A05               	incf	(sendDataVisualizer@x_343+1)^0,f,c
  1198  001C0C  5005               	movf	(sendDataVisualizer@x_343+1)^0,w,c
  1199  001C0E  E109               	bnz	u1880
  1200  001C10  0E04               	movlw	4
  1201  001C12  5C04               	subwf	sendDataVisualizer@x_343^0,w,c
  1202  001C14  A0D8               	btfss	status,0,c
  1203  001C16  EF0F  F00E         	goto	u1881
  1204  001C1A  EF11  F00E         	goto	u1880
  1205  001C1E                     u1881:
  1206  001C1E  EFFB  F00D         	goto	l2541
  1207  001C22                     u1880:
  1208  001C22                     
  1209                           ;final_control.c: 324:     ptrPlanta=(char *) & Y[2][0];
  1210  001C22  0E5F               	movlw	low (_Y+8)
  1211  001C24  6E12               	movwf	sendDataVisualizer@ptrPlanta^0,c
  1212  001C26  0E00               	movlw	high (_Y+8)
  1213  001C28  6E13               	movwf	(sendDataVisualizer@ptrPlanta+1)^0,c
  1214  001C2A                     
  1215                           ;final_control.c: 325:     for (int x=0;x<sizeof(Y[2][0]);x++){
  1216  001C2A  0E00               	movlw	0
  1217  001C2C  6E07               	movwf	(sendDataVisualizer@x_344+1)^0,c
  1218  001C2E  0E00               	movlw	0
  1219  001C30  6E06               	movwf	sendDataVisualizer@x_344^0,c
  1220  001C32                     l2557:
  1221                           
  1222                           ;final_control.c: 326:         UART_Write(*(ptrPlanta++));
  1223  001C32  C012  FFD9         	movff	sendDataVisualizer@ptrPlanta,fsr2l
  1224  001C36  C013  FFDA         	movff	sendDataVisualizer@ptrPlanta+1,fsr2h
  1225  001C3A  50DF               	movf	indf2,w,c
  1226  001C3C  ECEE  F014         	call	_UART_Write
  1227  001C40  4A12               	infsnz	sendDataVisualizer@ptrPlanta^0,f,c
  1228  001C42  2A13               	incf	(sendDataVisualizer@ptrPlanta+1)^0,f,c
  1229  001C44                     
  1230                           ;final_control.c: 327:     };
  1231  001C44  4A06               	infsnz	sendDataVisualizer@x_344^0,f,c
  1232  001C46  2A07               	incf	(sendDataVisualizer@x_344+1)^0,f,c
  1233  001C48  5007               	movf	(sendDataVisualizer@x_344+1)^0,w,c
  1234  001C4A  E109               	bnz	u1890
  1235  001C4C  0E04               	movlw	4
  1236  001C4E  5C06               	subwf	sendDataVisualizer@x_344^0,w,c
  1237  001C50  A0D8               	btfss	status,0,c
  1238  001C52  EF2D  F00E         	goto	u1891
  1239  001C56  EF2F  F00E         	goto	u1890
  1240  001C5A                     u1891:
  1241  001C5A  EF19  F00E         	goto	l2557
  1242  001C5E                     u1890:
  1243  001C5E                     
  1244                           ;final_control.c: 328:     ptrPlanta=(char *) & Y[3][0];
  1245  001C5E  0E63               	movlw	low (_Y+12)
  1246  001C60  6E12               	movwf	sendDataVisualizer@ptrPlanta^0,c
  1247  001C62  0E00               	movlw	high (_Y+12)
  1248  001C64  6E13               	movwf	(sendDataVisualizer@ptrPlanta+1)^0,c
  1249  001C66                     
  1250                           ;final_control.c: 329:     for (int x=0;x<sizeof(Y[3][0]);x++){
  1251  001C66  0E00               	movlw	0
  1252  001C68  6E09               	movwf	(sendDataVisualizer@x_345+1)^0,c
  1253  001C6A  0E00               	movlw	0
  1254  001C6C  6E08               	movwf	sendDataVisualizer@x_345^0,c
  1255  001C6E                     l2573:
  1256                           
  1257                           ;final_control.c: 330:         UART_Write(*(ptrPlanta++));
  1258  001C6E  C012  FFD9         	movff	sendDataVisualizer@ptrPlanta,fsr2l
  1259  001C72  C013  FFDA         	movff	sendDataVisualizer@ptrPlanta+1,fsr2h
  1260  001C76  50DF               	movf	indf2,w,c
  1261  001C78  ECEE  F014         	call	_UART_Write
  1262  001C7C  4A12               	infsnz	sendDataVisualizer@ptrPlanta^0,f,c
  1263  001C7E  2A13               	incf	(sendDataVisualizer@ptrPlanta+1)^0,f,c
  1264  001C80                     
  1265                           ;final_control.c: 331:     };
  1266  001C80  4A08               	infsnz	sendDataVisualizer@x_345^0,f,c
  1267  001C82  2A09               	incf	(sendDataVisualizer@x_345+1)^0,f,c
  1268  001C84  5009               	movf	(sendDataVisualizer@x_345+1)^0,w,c
  1269  001C86  E109               	bnz	u1900
  1270  001C88  0E04               	movlw	4
  1271  001C8A  5C08               	subwf	sendDataVisualizer@x_345^0,w,c
  1272  001C8C  A0D8               	btfss	status,0,c
  1273  001C8E  EF4B  F00E         	goto	u1901
  1274  001C92  EF4D  F00E         	goto	u1900
  1275  001C96                     u1901:
  1276  001C96  EF37  F00E         	goto	l2573
  1277  001C9A                     u1900:
  1278  001C9A                     
  1279                           ;final_control.c: 333:     for (int x=0;x<sizeof(Yo[0][0]);x++){
  1280  001C9A  0E00               	movlw	0
  1281  001C9C  6E0B               	movwf	(sendDataVisualizer@x_346+1)^0,c
  1282  001C9E  0E00               	movlw	0
  1283  001CA0  6E0A               	movwf	sendDataVisualizer@x_346^0,c
  1284  001CA2                     l2587:
  1285                           
  1286                           ;final_control.c: 334:         UART_Write(*(ptrObs++));
  1287  001CA2  C014  FFD9         	movff	sendDataVisualizer@ptrObs,fsr2l
  1288  001CA6  C015  FFDA         	movff	sendDataVisualizer@ptrObs+1,fsr2h
  1289  001CAA  50DF               	movf	indf2,w,c
  1290  001CAC  ECEE  F014         	call	_UART_Write
  1291  001CB0  4A14               	infsnz	sendDataVisualizer@ptrObs^0,f,c
  1292  001CB2  2A15               	incf	(sendDataVisualizer@ptrObs+1)^0,f,c
  1293  001CB4                     
  1294                           ;final_control.c: 335:     };
  1295  001CB4  4A0A               	infsnz	sendDataVisualizer@x_346^0,f,c
  1296  001CB6  2A0B               	incf	(sendDataVisualizer@x_346+1)^0,f,c
  1297  001CB8  500B               	movf	(sendDataVisualizer@x_346+1)^0,w,c
  1298  001CBA  E109               	bnz	u1910
  1299  001CBC  0E04               	movlw	4
  1300  001CBE  5C0A               	subwf	sendDataVisualizer@x_346^0,w,c
  1301  001CC0  A0D8               	btfss	status,0,c
  1302  001CC2  EF65  F00E         	goto	u1911
  1303  001CC6  EF67  F00E         	goto	u1910
  1304  001CCA                     u1911:
  1305  001CCA  EF51  F00E         	goto	l2587
  1306  001CCE                     u1910:
  1307  001CCE                     
  1308                           ;final_control.c: 336:     ptrObs=(char *) & Yo[1][0];
  1309  001CCE  0EC8               	movlw	low (_Yo+4)
  1310  001CD0  6E14               	movwf	sendDataVisualizer@ptrObs^0,c
  1311  001CD2  0E00               	movlw	high (_Yo+4)
  1312  001CD4  6E15               	movwf	(sendDataVisualizer@ptrObs+1)^0,c
  1313  001CD6                     
  1314                           ;final_control.c: 337:     for (int x=0;x<sizeof(Yo[1][0]);x++){
  1315  001CD6  0E00               	movlw	0
  1316  001CD8  6E0D               	movwf	(sendDataVisualizer@x_347+1)^0,c
  1317  001CDA  0E00               	movlw	0
  1318  001CDC  6E0C               	movwf	sendDataVisualizer@x_347^0,c
  1319  001CDE                     l2603:
  1320                           
  1321                           ;final_control.c: 338:         UART_Write(*(ptrObs++));
  1322  001CDE  C014  FFD9         	movff	sendDataVisualizer@ptrObs,fsr2l
  1323  001CE2  C015  FFDA         	movff	sendDataVisualizer@ptrObs+1,fsr2h
  1324  001CE6  50DF               	movf	indf2,w,c
  1325  001CE8  ECEE  F014         	call	_UART_Write
  1326  001CEC  4A14               	infsnz	sendDataVisualizer@ptrObs^0,f,c
  1327  001CEE  2A15               	incf	(sendDataVisualizer@ptrObs+1)^0,f,c
  1328  001CF0                     
  1329                           ;final_control.c: 339:     };
  1330  001CF0  4A0C               	infsnz	sendDataVisualizer@x_347^0,f,c
  1331  001CF2  2A0D               	incf	(sendDataVisualizer@x_347+1)^0,f,c
  1332  001CF4  500D               	movf	(sendDataVisualizer@x_347+1)^0,w,c
  1333  001CF6  E109               	bnz	u1920
  1334  001CF8  0E04               	movlw	4
  1335  001CFA  5C0C               	subwf	sendDataVisualizer@x_347^0,w,c
  1336  001CFC  A0D8               	btfss	status,0,c
  1337  001CFE  EF83  F00E         	goto	u1921
  1338  001D02  EF85  F00E         	goto	u1920
  1339  001D06                     u1921:
  1340  001D06  EF6F  F00E         	goto	l2603
  1341  001D0A                     u1920:
  1342  001D0A                     
  1343                           ;final_control.c: 340:     ptrObs=(char *) & Yo[2][0];
  1344  001D0A  0ECC               	movlw	low (_Yo+8)
  1345  001D0C  6E14               	movwf	sendDataVisualizer@ptrObs^0,c
  1346  001D0E  0E00               	movlw	high (_Yo+8)
  1347  001D10  6E15               	movwf	(sendDataVisualizer@ptrObs+1)^0,c
  1348  001D12                     
  1349                           ;final_control.c: 341:     for (int x=0;x<sizeof(Yo[2][0]);x++){
  1350  001D12  0E00               	movlw	0
  1351  001D14  6E0F               	movwf	(sendDataVisualizer@x_348+1)^0,c
  1352  001D16  0E00               	movlw	0
  1353  001D18  6E0E               	movwf	sendDataVisualizer@x_348^0,c
  1354  001D1A                     l2619:
  1355                           
  1356                           ;final_control.c: 342:         UART_Write(*(ptrObs++));
  1357  001D1A  C014  FFD9         	movff	sendDataVisualizer@ptrObs,fsr2l
  1358  001D1E  C015  FFDA         	movff	sendDataVisualizer@ptrObs+1,fsr2h
  1359  001D22  50DF               	movf	indf2,w,c
  1360  001D24  ECEE  F014         	call	_UART_Write
  1361  001D28  4A14               	infsnz	sendDataVisualizer@ptrObs^0,f,c
  1362  001D2A  2A15               	incf	(sendDataVisualizer@ptrObs+1)^0,f,c
  1363  001D2C                     
  1364                           ;final_control.c: 343:     };
  1365  001D2C  4A0E               	infsnz	sendDataVisualizer@x_348^0,f,c
  1366  001D2E  2A0F               	incf	(sendDataVisualizer@x_348+1)^0,f,c
  1367  001D30  500F               	movf	(sendDataVisualizer@x_348+1)^0,w,c
  1368  001D32  E109               	bnz	u1930
  1369  001D34  0E04               	movlw	4
  1370  001D36  5C0E               	subwf	sendDataVisualizer@x_348^0,w,c
  1371  001D38  A0D8               	btfss	status,0,c
  1372  001D3A  EFA1  F00E         	goto	u1931
  1373  001D3E  EFA3  F00E         	goto	u1930
  1374  001D42                     u1931:
  1375  001D42  EF8D  F00E         	goto	l2619
  1376  001D46                     u1930:
  1377  001D46                     
  1378                           ;final_control.c: 344:     ptrObs=(char *) & Yo[3][0];
  1379  001D46  0ED0               	movlw	low (_Yo+12)
  1380  001D48  6E14               	movwf	sendDataVisualizer@ptrObs^0,c
  1381  001D4A  0E00               	movlw	high (_Yo+12)
  1382  001D4C  6E15               	movwf	(sendDataVisualizer@ptrObs+1)^0,c
  1383  001D4E                     
  1384                           ;final_control.c: 345:     for (int x=0;x<sizeof(Yo[3][0]);x++){
  1385  001D4E  0E00               	movlw	0
  1386  001D50  6E11               	movwf	(sendDataVisualizer@x_349+1)^0,c
  1387  001D52  0E00               	movlw	0
  1388  001D54  6E10               	movwf	sendDataVisualizer@x_349^0,c
  1389  001D56                     l2635:
  1390                           
  1391                           ;final_control.c: 346:         UART_Write(*(ptrObs++));
  1392  001D56  C014  FFD9         	movff	sendDataVisualizer@ptrObs,fsr2l
  1393  001D5A  C015  FFDA         	movff	sendDataVisualizer@ptrObs+1,fsr2h
  1394  001D5E  50DF               	movf	indf2,w,c
  1395  001D60  ECEE  F014         	call	_UART_Write
  1396  001D64  4A14               	infsnz	sendDataVisualizer@ptrObs^0,f,c
  1397  001D66  2A15               	incf	(sendDataVisualizer@ptrObs+1)^0,f,c
  1398  001D68                     
  1399                           ;final_control.c: 347:     };
  1400  001D68  4A10               	infsnz	sendDataVisualizer@x_349^0,f,c
  1401  001D6A  2A11               	incf	(sendDataVisualizer@x_349+1)^0,f,c
  1402  001D6C  5011               	movf	(sendDataVisualizer@x_349+1)^0,w,c
  1403  001D6E  E109               	bnz	u1940
  1404  001D70  0E04               	movlw	4
  1405  001D72  5C10               	subwf	sendDataVisualizer@x_349^0,w,c
  1406  001D74  A0D8               	btfss	status,0,c
  1407  001D76  EFBF  F00E         	goto	u1941
  1408  001D7A  EFC1  F00E         	goto	u1940
  1409  001D7E                     u1941:
  1410  001D7E  EFAB  F00E         	goto	l2635
  1411  001D82                     u1940:
  1412  001D82                     
  1413                           ;final_control.c: 348:     UART_Write(0xFC);
  1414  001D82  0EFC               	movlw	252
  1415  001D84  ECEE  F014         	call	_UART_Write
  1416  001D88  0012               	return		;funcret
  1417  001D8A                     __end_of_sendDataVisualizer:
  1418                           	callstack 0
  1419                           
  1420 ;; *************** function _plantaPLUSobservador *****************
  1421 ;; Defined at:
  1422 ;;		line 142 in file "final_control.c"
  1423 ;; Parameters:    Size  Location     Type
  1424 ;;		None
  1425 ;; Auto vars:     Size  Location     Type
  1426 ;;		None
  1427 ;; Return value:  Size  Location     Type
  1428 ;;                  1    wreg      void 
  1429 ;; Registers used:
  1430 ;;		wreg, fsr2l, fsr2h, status,2, status,0, prodl, prodh, cstack
  1431 ;; Tracked objects:
  1432 ;;		On entry : 0/0
  1433 ;;		On exit  : 0/0
  1434 ;;		Unchanged: 0/0
  1435 ;; Data sizes:     COMRAM   BANK0   BANK1   BANK2   BANK3   BANK4   BANK5   BANK6   BANK7   BANK8   BANK9  BANK10  BANK1
      +1  BANK12  BANK13  BANK14  BANK15
  1436 ;;      Params:         0       0       0       0       0       0       0       0       0       0       0       0       
      +0       0       0       0       0
  1437 ;;      Locals:         0       0       0       0       0       0       0       0       0       0       0       0       
      +0       0       0       0       0
  1438 ;;      Temps:          0       0       0       0       0       0       0       0       0       0       0       0       
      +0       0       0       0       0
  1439 ;;      Totals:         0       0       0       0       0       0       0       0       0       0       0       0       
      +0       0       0       0       0
  1440 ;;Total ram usage:        0 bytes
  1441 ;; Hardware stack levels used:    1
  1442 ;; Hardware stack levels required when called:    3
  1443 ;; This function calls:
  1444 ;;		_matrix_multiply_c1_c1
  1445 ;;		_matrix_multiply_c4_c1
  1446 ;;		_matrix_multiply_c5_c1
  1447 ;;		_matrix_sum_c1
  1448 ;; This function is called by:
  1449 ;;		_main
  1450 ;; This function uses a non-reentrant model
  1451 ;;
  1452                           
  1453                           	psect	text2
  1454  00192A                     __ptext2:
  1455                           	callstack 0
  1456  00192A                     _plantaPLUSobservador:
  1457                           	callstack 27
  1458  00192A                     
  1459                           ;final_control.c: 146:     fM1=4;matrix_multiply_c4_c1(A,X_0,aux_1);
  1460  00192A  0E00               	movlw	0
  1461  00192C  6E46               	movwf	(_fM1+1)^0,c	;volatile
  1462  00192E  0E04               	movlw	4
  1463  001930  6E45               	movwf	_fM1^0,c	;volatile
  1464  001932  0E50               	movlw	low _A
  1465  001934  6E26               	movwf	matrix_multiply_c4_c1@M1^0,c
  1466  001936  0E01               	movlw	high _A
  1467  001938  6E27               	movwf	(matrix_multiply_c4_c1@M1+1)^0,c
  1468  00193A  0E67               	movlw	low _X_0
  1469  00193C  6E28               	movwf	matrix_multiply_c4_c1@M2^0,c
  1470  00193E  0E00               	movlw	high _X_0
  1471  001940  6E29               	movwf	(matrix_multiply_c4_c1@M2+1)^0,c
  1472  001942  0EB4               	movlw	low _aux_1
  1473  001944  6E2A               	movwf	matrix_multiply_c4_c1@res^0,c
  1474  001946  0E00               	movlw	high _aux_1
  1475  001948  6E2B               	movwf	(matrix_multiply_c4_c1@res+1)^0,c
  1476  00194A  ECC5  F00E         	call	_matrix_multiply_c4_c1	;wreg free
  1477  00194E                     
  1478                           ;final_control.c: 147:     fM1=4;matrix_multiply_c1_c1(B,U,aux_2);
  1479  00194E  0E00               	movlw	0
  1480  001950  6E46               	movwf	(_fM1+1)^0,c	;volatile
  1481  001952  0E04               	movlw	4
  1482  001954  6E45               	movwf	_fM1^0,c	;volatile
  1483  001956  0EA0               	movlw	low _B
  1484  001958  6E26               	movwf	matrix_multiply_c1_c1@M1^0,c
  1485  00195A  0E01               	movlw	high _B
  1486  00195C  6E27               	movwf	(matrix_multiply_c1_c1@M1+1)^0,c
  1487  00195E  0E7B               	movlw	low _U
  1488  001960  6E28               	movwf	matrix_multiply_c1_c1@M2^0,c
  1489  001962  0E00               	movlw	high _U
  1490  001964  6E29               	movwf	(matrix_multiply_c1_c1@M2+1)^0,c
  1491  001966  0EA4               	movlw	low _aux_2
  1492  001968  6E2A               	movwf	matrix_multiply_c1_c1@res^0,c
  1493  00196A  0E00               	movlw	high _aux_2
  1494  00196C  6E2B               	movwf	(matrix_multiply_c1_c1@res+1)^0,c
  1495  00196E  EC96  F010         	call	_matrix_multiply_c1_c1	;wreg free
  1496  001972                     
  1497                           ;final_control.c: 148:     fM1=4;matrix_sum_c1(aux_1,aux_2,X_1);
  1498  001972  0E00               	movlw	0
  1499  001974  6E46               	movwf	(_fM1+1)^0,c	;volatile
  1500  001976  0E04               	movlw	4
  1501  001978  6E45               	movwf	_fM1^0,c	;volatile
  1502  00197A  0EB4               	movlw	low _aux_1
  1503  00197C  6E11               	movwf	matrix_sum_c1@M1^0,c
  1504  00197E  0E00               	movlw	high _aux_1
  1505  001980  6E12               	movwf	(matrix_sum_c1@M1+1)^0,c
  1506  001982  0EA4               	movlw	low _aux_2
  1507  001984  6E13               	movwf	matrix_sum_c1@M2^0,c
  1508  001986  0E00               	movlw	high _aux_2
  1509  001988  6E14               	movwf	(matrix_sum_c1@M2+1)^0,c
  1510  00198A  0EE4               	movlw	low _X_1
  1511  00198C  6E15               	movwf	matrix_sum_c1@res^0,c
  1512  00198E  0E00               	movlw	high _X_1
  1513  001990  6E16               	movwf	(matrix_sum_c1@res+1)^0,c
  1514  001992  EC7C  F011         	call	_matrix_sum_c1	;wreg free
  1515  001996                     
  1516                           ;final_control.c: 152:     Y[0][0]=X_0[0][0];
  1517  001996  C067  F057         	movff	_X_0,_Y	;volatile
  1518  00199A  C068  F058         	movff	_X_0+1,_Y+1	;volatile
  1519  00199E  C069  F059         	movff	_X_0+2,_Y+2	;volatile
  1520  0019A2  C06A  F05A         	movff	_X_0+3,_Y+3	;volatile
  1521  0019A6                     
  1522                           ;final_control.c: 153:     Y[1][0]=X_0[1][0];
  1523  0019A6  C06B  F05B         	movff	_X_0+4,_Y+4	;volatile
  1524  0019AA  C06C  F05C         	movff	_X_0+5,_Y+5	;volatile
  1525  0019AE  C06D  F05D         	movff	_X_0+6,_Y+6	;volatile
  1526  0019B2  C06E  F05E         	movff	_X_0+7,_Y+7	;volatile
  1527  0019B6                     
  1528                           ;final_control.c: 154:     Y[2][0]=X_0[2][0];
  1529  0019B6  C06F  F05F         	movff	_X_0+8,_Y+8	;volatile
  1530  0019BA  C070  F060         	movff	_X_0+9,_Y+9	;volatile
  1531  0019BE  C071  F061         	movff	_X_0+10,_Y+10	;volatile
  1532  0019C2  C072  F062         	movff	_X_0+11,_Y+11	;volatile
  1533  0019C6                     
  1534                           ;final_control.c: 155:     Y[3][0]=X_0[3][0];
  1535  0019C6  C073  F063         	movff	_X_0+12,_Y+12	;volatile
  1536  0019CA  C074  F064         	movff	_X_0+13,_Y+13	;volatile
  1537  0019CE  C075  F065         	movff	_X_0+14,_Y+14	;volatile
  1538  0019D2  C076  F066         	movff	_X_0+15,_Y+15	;volatile
  1539  0019D6                     
  1540                           ;final_control.c: 158:     X_0[0][0]=X_1[0][0];
  1541  0019D6  C0E4  F067         	movff	_X_1,_X_0	;volatile
  1542  0019DA  C0E5  F068         	movff	_X_1+1,_X_0+1	;volatile
  1543  0019DE  C0E6  F069         	movff	_X_1+2,_X_0+2	;volatile
  1544  0019E2  C0E7  F06A         	movff	_X_1+3,_X_0+3	;volatile
  1545  0019E6                     
  1546                           ;final_control.c: 159:     X_0[1][0]=X_1[1][0];
  1547  0019E6  C0E8  F06B         	movff	_X_1+4,_X_0+4	;volatile
  1548  0019EA  C0E9  F06C         	movff	_X_1+5,_X_0+5	;volatile
  1549  0019EE  C0EA  F06D         	movff	_X_1+6,_X_0+6	;volatile
  1550  0019F2  C0EB  F06E         	movff	_X_1+7,_X_0+7	;volatile
  1551  0019F6                     
  1552                           ;final_control.c: 160:     X_0[2][0]=X_1[2][0];
  1553  0019F6  C0EC  F06F         	movff	_X_1+8,_X_0+8	;volatile
  1554  0019FA  C0ED  F070         	movff	_X_1+9,_X_0+9	;volatile
  1555  0019FE  C0EE  F071         	movff	_X_1+10,_X_0+10	;volatile
  1556  001A02  C0EF  F072         	movff	_X_1+11,_X_0+11	;volatile
  1557  001A06                     
  1558                           ;final_control.c: 161:     X_0[3][0]=X_1[3][0];
  1559  001A06  C0F0  F073         	movff	_X_1+12,_X_0+12	;volatile
  1560  001A0A  C0F1  F074         	movff	_X_1+13,_X_0+13	;volatile
  1561  001A0E  C0F2  F075         	movff	_X_1+14,_X_0+14	;volatile
  1562  001A12  C0F3  F076         	movff	_X_1+15,_X_0+15	;volatile
  1563  001A16                     
  1564                           ;final_control.c: 165:     inputObs[0][0]=U[0][0];
  1565  001A16  C07B  F080         	movff	_U,_inputObs	;volatile
  1566  001A1A  C07C  F081         	movff	_U+1,_inputObs+1	;volatile
  1567  001A1E  C07D  F082         	movff	_U+2,_inputObs+2	;volatile
  1568  001A22  C07E  F083         	movff	_U+3,_inputObs+3	;volatile
  1569  001A26                     
  1570                           ;final_control.c: 166:     inputObs[1][0]=Y[0][0];
  1571  001A26  C057  F084         	movff	_Y,_inputObs+4	;volatile
  1572  001A2A  C058  F085         	movff	_Y+1,_inputObs+5	;volatile
  1573  001A2E  C059  F086         	movff	_Y+2,_inputObs+6	;volatile
  1574  001A32  C05A  F087         	movff	_Y+3,_inputObs+7	;volatile
  1575  001A36                     
  1576                           ;final_control.c: 167:     inputObs[2][0]=Y[1][0];
  1577  001A36  C05B  F088         	movff	_Y+4,_inputObs+8	;volatile
  1578  001A3A  C05C  F089         	movff	_Y+5,_inputObs+9	;volatile
  1579  001A3E  C05D  F08A         	movff	_Y+6,_inputObs+10	;volatile
  1580  001A42  C05E  F08B         	movff	_Y+7,_inputObs+11	;volatile
  1581  001A46                     
  1582                           ;final_control.c: 168:     inputObs[3][0]=Y[2][0];
  1583  001A46  C05F  F08C         	movff	_Y+8,_inputObs+12	;volatile
  1584  001A4A  C060  F08D         	movff	_Y+9,_inputObs+13	;volatile
  1585  001A4E  C061  F08E         	movff	_Y+10,_inputObs+14	;volatile
  1586  001A52  C062  F08F         	movff	_Y+11,_inputObs+15	;volatile
  1587  001A56                     
  1588                           ;final_control.c: 169:     inputObs[4][0]=Y[3][0];
  1589  001A56  C063  F090         	movff	_Y+12,_inputObs+16	;volatile
  1590  001A5A  C064  F091         	movff	_Y+13,_inputObs+17	;volatile
  1591  001A5E  C065  F092         	movff	_Y+14,_inputObs+18	;volatile
  1592  001A62  C066  F093         	movff	_Y+15,_inputObs+19	;volatile
  1593  001A66                     
  1594                           ;final_control.c: 172:     fM1=4;matrix_multiply_c4_c1(Ao,Xo_0,aux_4);
  1595  001A66  0E00               	movlw	0
  1596  001A68  6E46               	movwf	(_fM1+1)^0,c	;volatile
  1597  001A6A  0E04               	movlw	4
  1598  001A6C  6E45               	movwf	_fM1^0,c	;volatile
  1599  001A6E  0E10               	movlw	low _Ao
  1600  001A70  6E26               	movwf	matrix_multiply_c4_c1@M1^0,c
  1601  001A72  0E01               	movlw	high _Ao
  1602  001A74  6E27               	movwf	(matrix_multiply_c4_c1@M1+1)^0,c
  1603  001A76  0E47               	movlw	low _Xo_0
  1604  001A78  6E28               	movwf	matrix_multiply_c4_c1@M2^0,c
  1605  001A7A  0E00               	movlw	high _Xo_0
  1606  001A7C  6E29               	movwf	(matrix_multiply_c4_c1@M2+1)^0,c
  1607  001A7E  0E94               	movlw	low _aux_4
  1608  001A80  6E2A               	movwf	matrix_multiply_c4_c1@res^0,c
  1609  001A82  0E00               	movlw	high _aux_4
  1610  001A84  6E2B               	movwf	(matrix_multiply_c4_c1@res+1)^0,c
  1611  001A86  ECC5  F00E         	call	_matrix_multiply_c4_c1	;wreg free
  1612  001A8A                     
  1613                           ;final_control.c: 173:     fM1=4;matrix_multiply_c5_c1(Bo,inputObs,aux_5);
  1614  001A8A  0E00               	movlw	0
  1615  001A8C  6E46               	movwf	(_fM1+1)^0,c	;volatile
  1616  001A8E  0E04               	movlw	4
  1617  001A90  6E45               	movwf	_fM1^0,c	;volatile
  1618  001A92  0E80               	movlw	low _Bo
  1619  001A94  6E26               	movwf	matrix_multiply_c5_c1@M1^0,c
  1620  001A96  0E02               	movlw	high _Bo
  1621  001A98  6E27               	movwf	(matrix_multiply_c5_c1@M1+1)^0,c
  1622  001A9A  0E80               	movlw	low _inputObs
  1623  001A9C  6E28               	movwf	matrix_multiply_c5_c1@M2^0,c
  1624  001A9E  0E00               	movlw	high _inputObs
  1625  001AA0  6E29               	movwf	(matrix_multiply_c5_c1@M2+1)^0,c
  1626  001AA2  0EC0               	movlw	low _aux_5
  1627  001AA4  6E2A               	movwf	matrix_multiply_c5_c1@res^0,c
  1628  001AA6  0E01               	movlw	high _aux_5
  1629  001AA8  6E2B               	movwf	(matrix_multiply_c5_c1@res+1)^0,c
  1630  001AAA  ECAF  F00F         	call	_matrix_multiply_c5_c1	;wreg free
  1631  001AAE                     
  1632                           ;final_control.c: 174:     fM1=4;matrix_sum_c1(aux_4,aux_5,Xo_1);
  1633  001AAE  0E00               	movlw	0
  1634  001AB0  6E46               	movwf	(_fM1+1)^0,c	;volatile
  1635  001AB2  0E04               	movlw	4
  1636  001AB4  6E45               	movwf	_fM1^0,c	;volatile
  1637  001AB6  0E94               	movlw	low _aux_4
  1638  001AB8  6E11               	movwf	matrix_sum_c1@M1^0,c
  1639  001ABA  0E00               	movlw	high _aux_4
  1640  001ABC  6E12               	movwf	(matrix_sum_c1@M1+1)^0,c
  1641  001ABE  0EC0               	movlw	low _aux_5
  1642  001AC0  6E13               	movwf	matrix_sum_c1@M2^0,c
  1643  001AC2  0E01               	movlw	high _aux_5
  1644  001AC4  6E14               	movwf	(matrix_sum_c1@M2+1)^0,c
  1645  001AC6  0ED4               	movlw	low _Xo_1
  1646  001AC8  6E15               	movwf	matrix_sum_c1@res^0,c
  1647  001ACA  0E00               	movlw	high _Xo_1
  1648  001ACC  6E16               	movwf	(matrix_sum_c1@res+1)^0,c
  1649  001ACE  EC7C  F011         	call	_matrix_sum_c1	;wreg free
  1650  001AD2                     
  1651                           ;final_control.c: 178:     Yo[0][0]=Xo_0[0][0];
  1652  001AD2  C047  F0C4         	movff	_Xo_0,_Yo	;volatile
  1653  001AD6  C048  F0C5         	movff	_Xo_0+1,_Yo+1	;volatile
  1654  001ADA  C049  F0C6         	movff	_Xo_0+2,_Yo+2	;volatile
  1655  001ADE  C04A  F0C7         	movff	_Xo_0+3,_Yo+3	;volatile
  1656  001AE2                     
  1657                           ;final_control.c: 179:     Yo[1][0]=Xo_0[1][0];
  1658  001AE2  C04B  F0C8         	movff	_Xo_0+4,_Yo+4	;volatile
  1659  001AE6  C04C  F0C9         	movff	_Xo_0+5,_Yo+5	;volatile
  1660  001AEA  C04D  F0CA         	movff	_Xo_0+6,_Yo+6	;volatile
  1661  001AEE  C04E  F0CB         	movff	_Xo_0+7,_Yo+7	;volatile
  1662  001AF2                     
  1663                           ;final_control.c: 180:     Yo[2][0]=Xo_0[2][0];
  1664  001AF2  C04F  F0CC         	movff	_Xo_0+8,_Yo+8	;volatile
  1665  001AF6  C050  F0CD         	movff	_Xo_0+9,_Yo+9	;volatile
  1666  001AFA  C051  F0CE         	movff	_Xo_0+10,_Yo+10	;volatile
  1667  001AFE  C052  F0CF         	movff	_Xo_0+11,_Yo+11	;volatile
  1668  001B02                     
  1669                           ;final_control.c: 181:     Yo[3][0]=Xo_0[3][0];
  1670  001B02  C053  F0D0         	movff	_Xo_0+12,_Yo+12	;volatile
  1671  001B06  C054  F0D1         	movff	_Xo_0+13,_Yo+13	;volatile
  1672  001B0A  C055  F0D2         	movff	_Xo_0+14,_Yo+14	;volatile
  1673  001B0E  C056  F0D3         	movff	_Xo_0+15,_Yo+15	;volatile
  1674  001B12                     
  1675                           ;final_control.c: 184:     Xo_0[0][0]=Xo_1[0][0];
  1676  001B12  C0D4  F047         	movff	_Xo_1,_Xo_0	;volatile
  1677  001B16  C0D5  F048         	movff	_Xo_1+1,_Xo_0+1	;volatile
  1678  001B1A  C0D6  F049         	movff	_Xo_1+2,_Xo_0+2	;volatile
  1679  001B1E  C0D7  F04A         	movff	_Xo_1+3,_Xo_0+3	;volatile
  1680  001B22                     
  1681                           ;final_control.c: 185:     Xo_0[1][0]=Xo_1[1][0];
  1682  001B22  C0D8  F04B         	movff	_Xo_1+4,_Xo_0+4	;volatile
  1683  001B26  C0D9  F04C         	movff	_Xo_1+5,_Xo_0+5	;volatile
  1684  001B2A  C0DA  F04D         	movff	_Xo_1+6,_Xo_0+6	;volatile
  1685  001B2E  C0DB  F04E         	movff	_Xo_1+7,_Xo_0+7	;volatile
  1686  001B32                     
  1687                           ;final_control.c: 186:     Xo_0[2][0]=Xo_1[2][0];
  1688  001B32  C0DC  F04F         	movff	_Xo_1+8,_Xo_0+8	;volatile
  1689  001B36  C0DD  F050         	movff	_Xo_1+9,_Xo_0+9	;volatile
  1690  001B3A  C0DE  F051         	movff	_Xo_1+10,_Xo_0+10	;volatile
  1691  001B3E  C0DF  F052         	movff	_Xo_1+11,_Xo_0+11	;volatile
  1692  001B42                     
  1693                           ;final_control.c: 187:     Xo_0[3][0]=Xo_1[3][0];
  1694  001B42  C0E0  F053         	movff	_Xo_1+12,_Xo_0+12	;volatile
  1695  001B46  C0E1  F054         	movff	_Xo_1+13,_Xo_0+13	;volatile
  1696  001B4A  C0E2  F055         	movff	_Xo_1+14,_Xo_0+14	;volatile
  1697  001B4E  C0E3  F056         	movff	_Xo_1+15,_Xo_0+15	;volatile
  1698  001B52                     
  1699                           ;final_control.c: 191:     fM1=1;matrix_multiply_c4_c1(nKd,Yo,aux_3);
  1700  001B52  0E00               	movlw	0
  1701  001B54  6E46               	movwf	(_fM1+1)^0,c	;volatile
  1702  001B56  0E01               	movlw	1
  1703  001B58  6E45               	movwf	_fM1^0,c	;volatile
  1704  001B5A  0E90               	movlw	low _nKd
  1705  001B5C  6E26               	movwf	matrix_multiply_c4_c1@M1^0,c
  1706  001B5E  0E01               	movlw	high _nKd
  1707  001B60  6E27               	movwf	(matrix_multiply_c4_c1@M1+1)^0,c
  1708  001B62  0EC4               	movlw	low _Yo
  1709  001B64  6E28               	movwf	matrix_multiply_c4_c1@M2^0,c
  1710  001B66  0E00               	movlw	high _Yo
  1711  001B68  6E29               	movwf	(matrix_multiply_c4_c1@M2+1)^0,c
  1712  001B6A  0E77               	movlw	low _aux_3
  1713  001B6C  6E2A               	movwf	matrix_multiply_c4_c1@res^0,c
  1714  001B6E  0E00               	movlw	high _aux_3
  1715  001B70  6E2B               	movwf	(matrix_multiply_c4_c1@res+1)^0,c
  1716  001B72  ECC5  F00E         	call	_matrix_multiply_c4_c1	;wreg free
  1717                           
  1718                           ;final_control.c: 192:     fM1=1;matrix_sum_c1(ref_by_Nbard,aux_3,U);
  1719  001B76  0E00               	movlw	0
  1720  001B78  6E46               	movwf	(_fM1+1)^0,c	;volatile
  1721  001B7A  0E01               	movlw	1
  1722  001B7C  6E45               	movwf	_fM1^0,c	;volatile
  1723  001B7E  0EF8               	movlw	low _ref_by_Nbard
  1724  001B80  6E11               	movwf	matrix_sum_c1@M1^0,c
  1725  001B82  0E00               	movlw	high _ref_by_Nbard
  1726  001B84  6E12               	movwf	(matrix_sum_c1@M1+1)^0,c
  1727  001B86  0E77               	movlw	low _aux_3
  1728  001B88  6E13               	movwf	matrix_sum_c1@M2^0,c
  1729  001B8A  0E00               	movlw	high _aux_3
  1730  001B8C  6E14               	movwf	(matrix_sum_c1@M2+1)^0,c
  1731  001B8E  0E7B               	movlw	low _U
  1732  001B90  6E15               	movwf	matrix_sum_c1@res^0,c
  1733  001B92  0E00               	movlw	high _U
  1734  001B94  6E16               	movwf	(matrix_sum_c1@res+1)^0,c
  1735  001B96  EC7C  F011         	call	_matrix_sum_c1	;wreg free
  1736  001B9A  0012               	return		;funcret
  1737  001B9C                     __end_of_plantaPLUSobservador:
  1738                           	callstack 0
  1739                           
  1740 ;; *************** function _matrix_sum_c1 *****************
  1741 ;; Defined at:
  1742 ;;		line 298 in file "final_control.c"
  1743 ;; Parameters:    Size  Location     Type
  1744 ;;  M1              2   16[COMRAM] PTR volatile [1]
  1745 ;;		 -> aux_4(16), ref_by_Nbard(4), aux_1(16), 
  1746 ;;  M2              2   18[COMRAM] PTR volatile [1]
  1747 ;;		 -> aux_5(16), aux_3(4), aux_2(16), 
  1748 ;;  res             2   20[COMRAM] PTR volatile [1]
  1749 ;;		 -> Xo_1(16), X_1(16), U(4), 
  1750 ;; Auto vars:     Size  Location     Type
  1751 ;;  j               2   36[COMRAM] int 
  1752 ;;  i               2   34[COMRAM] int 
  1753 ;; Return value:  Size  Location     Type
  1754 ;;                  1    wreg      void 
  1755 ;; Registers used:
  1756 ;;		wreg, fsr2l, fsr2h, status,2, status,0, cstack
  1757 ;; Tracked objects:
  1758 ;;		On entry : 0/0
  1759 ;;		On exit  : 0/0
  1760 ;;		Unchanged: 0/0
  1761 ;; Data sizes:     COMRAM   BANK0   BANK1   BANK2   BANK3   BANK4   BANK5   BANK6   BANK7   BANK8   BANK9  BANK10  BANK1
      +1  BANK12  BANK13  BANK14  BANK15
  1762 ;;      Params:         6       0       0       0       0       0       0       0       0       0       0       0       
      +0       0       0       0       0
  1763 ;;      Locals:         4       0       0       0       0       0       0       0       0       0       0       0       
      +0       0       0       0       0
  1764 ;;      Temps:         12       0       0       0       0       0       0       0       0       0       0       0       
      +0       0       0       0       0
  1765 ;;      Totals:        22       0       0       0       0       0       0       0       0       0       0       0       
      +0       0       0       0       0
  1766 ;;Total ram usage:       22 bytes
  1767 ;; Hardware stack levels used:    1
  1768 ;; Hardware stack levels required when called:    1
  1769 ;; This function calls:
  1770 ;;		___fladd
  1771 ;; This function is called by:
  1772 ;;		_plantaPLUSobservador
  1773 ;;		_planta
  1774 ;;		_plantaPLUSobservadorPLUSperturbacion
  1775 ;; This function uses a non-reentrant model
  1776 ;;
  1777                           
  1778                           	psect	text3
  1779  0022F8                     __ptext3:
  1780                           	callstack 0
  1781  0022F8                     _matrix_sum_c1:
  1782                           	callstack 28
  1783  0022F8                     
  1784                           ;final_control.c: 300:     int i=0,j=0;
  1785  0022F8  0E00               	movlw	0
  1786  0022FA  6E24               	movwf	(matrix_sum_c1@i+1)^0,c
  1787  0022FC  0E00               	movlw	0
  1788  0022FE  6E23               	movwf	matrix_sum_c1@i^0,c
  1789                           
  1790                           ;final_control.c: 301:     for(i=0;i<fM1;i++){
  1791  002300  0E00               	movlw	0
  1792  002302  6E24               	movwf	(matrix_sum_c1@i+1)^0,c
  1793  002304  0E00               	movlw	0
  1794  002306  6E23               	movwf	matrix_sum_c1@i^0,c
  1795  002308  EF0F  F012         	goto	l2349
  1796  00230C                     l2335:
  1797                           
  1798                           ;final_control.c: 302:         for(j=0;j<1;j++){
  1799  00230C  0E00               	movlw	0
  1800  00230E  6E26               	movwf	(matrix_sum_c1@j+1)^0,c
  1801  002310  0E00               	movlw	0
  1802  002312  6E25               	movwf	matrix_sum_c1@j^0,c
  1803  002314                     l2341:
  1804                           
  1805                           ;final_control.c: 303:             res[i][j]=M1[i][j]+M2[i][j];
  1806  002314  C023  F017         	movff	matrix_sum_c1@i,??_matrix_sum_c1
  1807  002318  C024  F018         	movff	matrix_sum_c1@i+1,??_matrix_sum_c1+1
  1808  00231C  90D8               	bcf	status,0,c
  1809  00231E  3617               	rlcf	??_matrix_sum_c1^0,f,c
  1810  002320  3618               	rlcf	(??_matrix_sum_c1+1)^0,f,c
  1811  002322  90D8               	bcf	status,0,c
  1812  002324  3617               	rlcf	??_matrix_sum_c1^0,f,c
  1813  002326  3618               	rlcf	(??_matrix_sum_c1+1)^0,f,c
  1814  002328  C011  F019         	movff	matrix_sum_c1@M1,??_matrix_sum_c1+2
  1815  00232C  C012  F01A         	movff	matrix_sum_c1@M1+1,??_matrix_sum_c1+3
  1816  002330  5017               	movf	??_matrix_sum_c1^0,w,c
  1817  002332  2619               	addwf	(??_matrix_sum_c1+2)^0,f,c
  1818  002334  5018               	movf	(??_matrix_sum_c1+1)^0,w,c
  1819  002336  221A               	addwfc	(??_matrix_sum_c1+3)^0,f,c
  1820  002338  90D8               	bcf	status,0,c
  1821  00233A  3425               	rlcf	matrix_sum_c1@j^0,w,c
  1822  00233C  6ED9               	movwf	fsr2l,c
  1823  00233E  3426               	rlcf	(matrix_sum_c1@j+1)^0,w,c
  1824  002340  6EDA               	movwf	fsr2h,c
  1825  002342  90D8               	bcf	status,0,c
  1826  002344  36D9               	rlcf	fsr2l,f,c
  1827  002346  36DA               	rlcf	fsr2h,f,c
  1828  002348  5019               	movf	(??_matrix_sum_c1+2)^0,w,c
  1829  00234A  26D9               	addwf	fsr2l,f,c
  1830  00234C  501A               	movf	(??_matrix_sum_c1+3)^0,w,c
  1831  00234E  22DA               	addwfc	fsr2h,f,c
  1832  002350  CFDE F001          	movff	postinc2,___fladd@b
  1833  002354  CFDE F002          	movff	postinc2,___fladd@b+1
  1834  002358  CFDE F003          	movff	postinc2,___fladd@b+2
  1835  00235C  CFDE F004          	movff	postinc2,___fladd@b+3
  1836  002360  C023  F01B         	movff	matrix_sum_c1@i,??_matrix_sum_c1+4
  1837  002364  C024  F01C         	movff	matrix_sum_c1@i+1,??_matrix_sum_c1+5
  1838  002368  90D8               	bcf	status,0,c
  1839  00236A  361B               	rlcf	(??_matrix_sum_c1+4)^0,f,c
  1840  00236C  361C               	rlcf	(??_matrix_sum_c1+5)^0,f,c
  1841  00236E  90D8               	bcf	status,0,c
  1842  002370  361B               	rlcf	(??_matrix_sum_c1+4)^0,f,c
  1843  002372  361C               	rlcf	(??_matrix_sum_c1+5)^0,f,c
  1844  002374  C013  F01D         	movff	matrix_sum_c1@M2,??_matrix_sum_c1+6
  1845  002378  C014  F01E         	movff	matrix_sum_c1@M2+1,??_matrix_sum_c1+7
  1846  00237C  501B               	movf	(??_matrix_sum_c1+4)^0,w,c
  1847  00237E  261D               	addwf	(??_matrix_sum_c1+6)^0,f,c
  1848  002380  501C               	movf	(??_matrix_sum_c1+5)^0,w,c
  1849  002382  221E               	addwfc	(??_matrix_sum_c1+7)^0,f,c
  1850  002384  90D8               	bcf	status,0,c
  1851  002386  3425               	rlcf	matrix_sum_c1@j^0,w,c
  1852  002388  6ED9               	movwf	fsr2l,c
  1853  00238A  3426               	rlcf	(matrix_sum_c1@j+1)^0,w,c
  1854  00238C  6EDA               	movwf	fsr2h,c
  1855  00238E  90D8               	bcf	status,0,c
  1856  002390  36D9               	rlcf	fsr2l,f,c
  1857  002392  36DA               	rlcf	fsr2h,f,c
  1858  002394  501D               	movf	(??_matrix_sum_c1+6)^0,w,c
  1859  002396  26D9               	addwf	fsr2l,f,c
  1860  002398  501E               	movf	(??_matrix_sum_c1+7)^0,w,c
  1861  00239A  22DA               	addwfc	fsr2h,f,c
  1862  00239C  CFDE F005          	movff	postinc2,___fladd@a
  1863  0023A0  CFDE F006          	movff	postinc2,___fladd@a+1
  1864  0023A4  CFDE F007          	movff	postinc2,___fladd@a+2
  1865  0023A8  CFDE F008          	movff	postinc2,___fladd@a+3
  1866  0023AC  EC20  F008         	call	___fladd	;wreg free
  1867  0023B0  C023  F01F         	movff	matrix_sum_c1@i,??_matrix_sum_c1+8
  1868  0023B4  C024  F020         	movff	matrix_sum_c1@i+1,??_matrix_sum_c1+9
  1869  0023B8  90D8               	bcf	status,0,c
  1870  0023BA  361F               	rlcf	(??_matrix_sum_c1+8)^0,f,c
  1871  0023BC  3620               	rlcf	(??_matrix_sum_c1+9)^0,f,c
  1872  0023BE  90D8               	bcf	status,0,c
  1873  0023C0  361F               	rlcf	(??_matrix_sum_c1+8)^0,f,c
  1874  0023C2  3620               	rlcf	(??_matrix_sum_c1+9)^0,f,c
  1875  0023C4  C015  F021         	movff	matrix_sum_c1@res,??_matrix_sum_c1+10
  1876  0023C8  C016  F022         	movff	matrix_sum_c1@res+1,??_matrix_sum_c1+11
  1877  0023CC  501F               	movf	(??_matrix_sum_c1+8)^0,w,c
  1878  0023CE  2621               	addwf	(??_matrix_sum_c1+10)^0,f,c
  1879  0023D0  5020               	movf	(??_matrix_sum_c1+9)^0,w,c
  1880  0023D2  2222               	addwfc	(??_matrix_sum_c1+11)^0,f,c
  1881  0023D4  90D8               	bcf	status,0,c
  1882  0023D6  3425               	rlcf	matrix_sum_c1@j^0,w,c
  1883  0023D8  6ED9               	movwf	fsr2l,c
  1884  0023DA  3426               	rlcf	(matrix_sum_c1@j+1)^0,w,c
  1885  0023DC  6EDA               	movwf	fsr2h,c
  1886  0023DE  90D8               	bcf	status,0,c
  1887  0023E0  36D9               	rlcf	fsr2l,f,c
  1888  0023E2  36DA               	rlcf	fsr2h,f,c
  1889  0023E4  5021               	movf	(??_matrix_sum_c1+10)^0,w,c
  1890  0023E6  26D9               	addwf	fsr2l,f,c
  1891  0023E8  5022               	movf	(??_matrix_sum_c1+11)^0,w,c
  1892  0023EA  22DA               	addwfc	fsr2h,f,c
  1893  0023EC  C001  FFDE         	movff	?___fladd,postinc2
  1894  0023F0  C002  FFDE         	movff	?___fladd+1,postinc2
  1895  0023F4  C003  FFDE         	movff	?___fladd+2,postinc2
  1896  0023F8  C004  FFDE         	movff	?___fladd+3,postinc2
  1897  0023FC                     
  1898                           ;final_control.c: 304:         }
  1899  0023FC  4A25               	infsnz	matrix_sum_c1@j^0,f,c
  1900  0023FE  2A26               	incf	(matrix_sum_c1@j+1)^0,f,c
  1901  002400  BE26               	btfsc	(matrix_sum_c1@j+1)^0,7,c
  1902  002402  EF0B  F012         	goto	u1691
  1903  002406  5026               	movf	(matrix_sum_c1@j+1)^0,w,c
  1904  002408  E108               	bnz	u1690
  1905  00240A  0425               	decf	matrix_sum_c1@j^0,w,c
  1906  00240C  A0D8               	btfss	status,0,c
  1907  00240E  EF0B  F012         	goto	u1691
  1908  002412  EF0D  F012         	goto	u1690
  1909  002416                     u1691:
  1910  002416  EF8A  F011         	goto	l2341
  1911  00241A                     u1690:
  1912  00241A                     
  1913                           ;final_control.c: 305:     }
  1914  00241A  4A23               	infsnz	matrix_sum_c1@i^0,f,c
  1915  00241C  2A24               	incf	(matrix_sum_c1@i+1)^0,f,c
  1916  00241E                     l2349:
  1917  00241E  5045               	movf	_fM1^0,w,c	;volatile
  1918  002420  5C23               	subwf	matrix_sum_c1@i^0,w,c
  1919  002422  5024               	movf	(matrix_sum_c1@i+1)^0,w,c
  1920  002424  0A80               	xorlw	128
  1921  002426  6E17               	movwf	??_matrix_sum_c1^0,c
  1922  002428  5046               	movf	(_fM1+1)^0,w,c	;volatile
  1923  00242A  0A80               	xorlw	128
  1924  00242C  5817               	subwfb	??_matrix_sum_c1^0,w,c
  1925  00242E  A0D8               	btfss	status,0,c
  1926  002430  EF1C  F012         	goto	u1701
  1927  002434  EF1E  F012         	goto	u1700
  1928  002438                     u1701:
  1929  002438  EF86  F011         	goto	l2335
  1930  00243C                     u1700:
  1931  00243C  0012               	return		;funcret
  1932  00243E                     __end_of_matrix_sum_c1:
  1933                           	callstack 0
  1934                           
  1935 ;; *************** function _matrix_multiply_c5_c1 *****************
  1936 ;; Defined at:
  1937 ;;		line 286 in file "final_control.c"
  1938 ;; Parameters:    Size  Location     Type
  1939 ;;  M1              2   37[COMRAM] PTR volatile [5]
  1940 ;;		 -> Bo(80), 
  1941 ;;  M2              2   39[COMRAM] PTR volatile [1]
  1942 ;;		 -> inputObs(20), 
  1943 ;;  res             2   41[COMRAM] PTR volatile [1]
  1944 ;;		 -> aux_5(16), 
  1945 ;; Auto vars:     Size  Location     Type
  1946 ;;  j               2   59[COMRAM] int 
  1947 ;;  k               2   57[COMRAM] int 
  1948 ;;  i               2   55[COMRAM] int 
  1949 ;; Return value:  Size  Location     Type
  1950 ;;                  1    wreg      void 
  1951 ;; Registers used:
  1952 ;;		wreg, fsr2l, fsr2h, status,2, status,0, prodl, prodh, cstack
  1953 ;; Tracked objects:
  1954 ;;		On entry : 0/0
  1955 ;;		On exit  : 0/0
  1956 ;;		Unchanged: 0/0
  1957 ;; Data sizes:     COMRAM   BANK0   BANK1   BANK2   BANK3   BANK4   BANK5   BANK6   BANK7   BANK8   BANK9  BANK10  BANK1
      +1  BANK12  BANK13  BANK14  BANK15
  1958 ;;      Params:         6       0       0       0       0       0       0       0       0       0       0       0       
      +0       0       0       0       0
  1959 ;;      Locals:         6       0       0       0       0       0       0       0       0       0       0       0       
      +0       0       0       0       0
  1960 ;;      Temps:         12       0       0       0       0       0       0       0       0       0       0       0       
      +0       0       0       0       0
  1961 ;;      Totals:        24       0       0       0       0       0       0       0       0       0       0       0       
      +0       0       0       0       0
  1962 ;;Total ram usage:       24 bytes
  1963 ;; Hardware stack levels used:    1
  1964 ;; Hardware stack levels required when called:    2
  1965 ;; This function calls:
  1966 ;;		___asfladd
  1967 ;;		___flmul
  1968 ;;		___wmul
  1969 ;; This function is called by:
  1970 ;;		_plantaPLUSobservador
  1971 ;;		_plantaPLUSobservadorPLUSperturbacion
  1972 ;; This function uses a non-reentrant model
  1973 ;;
  1974                           
  1975                           	psect	text4
  1976  001F5E                     __ptext4:
  1977                           	callstack 0
  1978  001F5E                     _matrix_multiply_c5_c1:
  1979                           	callstack 27
  1980  001F5E                     
  1981                           ;final_control.c: 288:     int i=0,j=0,k=0;
  1982  001F5E  0E00               	movlw	0
  1983  001F60  6E39               	movwf	(matrix_multiply_c5_c1@i+1)^0,c
  1984  001F62  0E00               	movlw	0
  1985  001F64  6E38               	movwf	matrix_multiply_c5_c1@i^0,c
  1986  001F66  0E00               	movlw	0
  1987  001F68  6E3B               	movwf	(matrix_multiply_c5_c1@k+1)^0,c
  1988  001F6A  0E00               	movlw	0
  1989  001F6C  6E3A               	movwf	matrix_multiply_c5_c1@k^0,c
  1990                           
  1991                           ;final_control.c: 289:     for(i=0;i<fM1;i++){
  1992  001F6E  0E00               	movlw	0
  1993  001F70  6E39               	movwf	(matrix_multiply_c5_c1@i+1)^0,c
  1994  001F72  0E00               	movlw	0
  1995  001F74  6E38               	movwf	matrix_multiply_c5_c1@i^0,c
  1996  001F76  EF86  F010         	goto	l2379
  1997  001F7A                     l2353:
  1998                           
  1999                           ;final_control.c: 290:         for(j=0;j<1;j++){
  2000  001F7A  0E00               	movlw	0
  2001  001F7C  6E3D               	movwf	(matrix_multiply_c5_c1@j+1)^0,c
  2002  001F7E  0E00               	movlw	0
  2003  001F80  6E3C               	movwf	matrix_multiply_c5_c1@j^0,c
  2004  001F82                     l2359:
  2005                           
  2006                           ;final_control.c: 291:             res[i][j]=0;
  2007  001F82  C038  F02C         	movff	matrix_multiply_c5_c1@i,??_matrix_multiply_c5_c1
  2008  001F86  C039  F02D         	movff	matrix_multiply_c5_c1@i+1,??_matrix_multiply_c5_c1+1
  2009  001F8A  90D8               	bcf	status,0,c
  2010  001F8C  362C               	rlcf	??_matrix_multiply_c5_c1^0,f,c
  2011  001F8E  362D               	rlcf	(??_matrix_multiply_c5_c1+1)^0,f,c
  2012  001F90  90D8               	bcf	status,0,c
  2013  001F92  362C               	rlcf	??_matrix_multiply_c5_c1^0,f,c
  2014  001F94  362D               	rlcf	(??_matrix_multiply_c5_c1+1)^0,f,c
  2015  001F96  C02A  F02E         	movff	matrix_multiply_c5_c1@res,??_matrix_multiply_c5_c1+2
  2016  001F9A  C02B  F02F         	movff	matrix_multiply_c5_c1@res+1,??_matrix_multiply_c5_c1+3
  2017  001F9E  502C               	movf	??_matrix_multiply_c5_c1^0,w,c
  2018  001FA0  262E               	addwf	(??_matrix_multiply_c5_c1+2)^0,f,c
  2019  001FA2  502D               	movf	(??_matrix_multiply_c5_c1+1)^0,w,c
  2020  001FA4  222F               	addwfc	(??_matrix_multiply_c5_c1+3)^0,f,c
  2021  001FA6  90D8               	bcf	status,0,c
  2022  001FA8  343C               	rlcf	matrix_multiply_c5_c1@j^0,w,c
  2023  001FAA  6ED9               	movwf	fsr2l,c
  2024  001FAC  343D               	rlcf	(matrix_multiply_c5_c1@j+1)^0,w,c
  2025  001FAE  6EDA               	movwf	fsr2h,c
  2026  001FB0  90D8               	bcf	status,0,c
  2027  001FB2  36D9               	rlcf	fsr2l,f,c
  2028  001FB4  36DA               	rlcf	fsr2h,f,c
  2029  001FB6  502E               	movf	(??_matrix_multiply_c5_c1+2)^0,w,c
  2030  001FB8  26D9               	addwf	fsr2l,f,c
  2031  001FBA  502F               	movf	(??_matrix_multiply_c5_c1+3)^0,w,c
  2032  001FBC  22DA               	addwfc	fsr2h,f,c
  2033  001FBE  0E00               	movlw	0
  2034  001FC0  6EDE               	movwf	postinc2,c
  2035  001FC2  0E00               	movlw	0
  2036  001FC4  6EDE               	movwf	postinc2,c
  2037  001FC6  0E00               	movlw	0
  2038  001FC8  6EDE               	movwf	postinc2,c
  2039  001FCA  0E00               	movlw	0
  2040  001FCC  6EDD               	movwf	postdec2,c
  2041  001FCE                     
  2042                           ;final_control.c: 292:             for(k=0;k<5;k++){
  2043  001FCE  0E00               	movlw	0
  2044  001FD0  6E3B               	movwf	(matrix_multiply_c5_c1@k+1)^0,c
  2045  001FD2  0E00               	movlw	0
  2046  001FD4  6E3A               	movwf	matrix_multiply_c5_c1@k^0,c
  2047  001FD6                     l2367:
  2048                           
  2049                           ;final_control.c: 293:                 res[i][j]+=M1[i][k]*M2[k][j];
  2050  001FD6  C03C  F02C         	movff	matrix_multiply_c5_c1@j,??_matrix_multiply_c5_c1
  2051  001FDA  C03D  F02D         	movff	matrix_multiply_c5_c1@j+1,??_matrix_multiply_c5_c1+1
  2052  001FDE  90D8               	bcf	status,0,c
  2053  001FE0  362C               	rlcf	??_matrix_multiply_c5_c1^0,f,c
  2054  001FE2  362D               	rlcf	(??_matrix_multiply_c5_c1+1)^0,f,c
  2055  001FE4  90D8               	bcf	status,0,c
  2056  001FE6  362C               	rlcf	??_matrix_multiply_c5_c1^0,f,c
  2057  001FE8  362D               	rlcf	(??_matrix_multiply_c5_c1+1)^0,f,c
  2058  001FEA  C038  F02E         	movff	matrix_multiply_c5_c1@i,??_matrix_multiply_c5_c1+2
  2059  001FEE  C039  F02F         	movff	matrix_multiply_c5_c1@i+1,??_matrix_multiply_c5_c1+3
  2060  001FF2  90D8               	bcf	status,0,c
  2061  001FF4  362E               	rlcf	(??_matrix_multiply_c5_c1+2)^0,f,c
  2062  001FF6  362F               	rlcf	(??_matrix_multiply_c5_c1+3)^0,f,c
  2063  001FF8  90D8               	bcf	status,0,c
  2064  001FFA  362E               	rlcf	(??_matrix_multiply_c5_c1+2)^0,f,c
  2065  001FFC  362F               	rlcf	(??_matrix_multiply_c5_c1+3)^0,f,c
  2066  001FFE  C02A  F030         	movff	matrix_multiply_c5_c1@res,??_matrix_multiply_c5_c1+4
  2067  002002  C02B  F031         	movff	matrix_multiply_c5_c1@res+1,??_matrix_multiply_c5_c1+5
  2068  002006  502E               	movf	(??_matrix_multiply_c5_c1+2)^0,w,c
  2069  002008  2630               	addwf	(??_matrix_multiply_c5_c1+4)^0,f,c
  2070  00200A  502F               	movf	(??_matrix_multiply_c5_c1+3)^0,w,c
  2071  00200C  2231               	addwfc	(??_matrix_multiply_c5_c1+5)^0,f,c
  2072  00200E  502C               	movf	??_matrix_multiply_c5_c1^0,w,c
  2073  002010  2430               	addwf	(??_matrix_multiply_c5_c1+4)^0,w,c
  2074  002012  6E20               	movwf	___asfladd@f1p^0,c
  2075  002014  502D               	movf	(??_matrix_multiply_c5_c1+1)^0,w,c
  2076  002016  2031               	addwfc	(??_matrix_multiply_c5_c1+5)^0,w,c
  2077  002018  6E21               	movwf	(___asfladd@f1p+1)^0,c
  2078  00201A  C03A  F032         	movff	matrix_multiply_c5_c1@k,??_matrix_multiply_c5_c1+6
  2079  00201E  C03B  F033         	movff	matrix_multiply_c5_c1@k+1,??_matrix_multiply_c5_c1+7
  2080  002022  90D8               	bcf	status,0,c
  2081  002024  3632               	rlcf	(??_matrix_multiply_c5_c1+6)^0,f,c
  2082  002026  3633               	rlcf	(??_matrix_multiply_c5_c1+7)^0,f,c
  2083  002028  90D8               	bcf	status,0,c
  2084  00202A  3632               	rlcf	(??_matrix_multiply_c5_c1+6)^0,f,c
  2085  00202C  3633               	rlcf	(??_matrix_multiply_c5_c1+7)^0,f,c
  2086  00202E  C028  F034         	movff	matrix_multiply_c5_c1@M2,??_matrix_multiply_c5_c1+8
  2087  002032  C029  F035         	movff	matrix_multiply_c5_c1@M2+1,??_matrix_multiply_c5_c1+9
  2088  002036  5032               	movf	(??_matrix_multiply_c5_c1+6)^0,w,c
  2089  002038  2634               	addwf	(??_matrix_multiply_c5_c1+8)^0,f,c
  2090  00203A  5033               	movf	(??_matrix_multiply_c5_c1+7)^0,w,c
  2091  00203C  2235               	addwfc	(??_matrix_multiply_c5_c1+9)^0,f,c
  2092  00203E  90D8               	bcf	status,0,c
  2093  002040  343C               	rlcf	matrix_multiply_c5_c1@j^0,w,c
  2094  002042  6ED9               	movwf	fsr2l,c
  2095  002044  343D               	rlcf	(matrix_multiply_c5_c1@j+1)^0,w,c
  2096  002046  6EDA               	movwf	fsr2h,c
  2097  002048  90D8               	bcf	status,0,c
  2098  00204A  36D9               	rlcf	fsr2l,f,c
  2099  00204C  36DA               	rlcf	fsr2h,f,c
  2100  00204E  5034               	movf	(??_matrix_multiply_c5_c1+8)^0,w,c
  2101  002050  26D9               	addwf	fsr2l,f,c
  2102  002052  5035               	movf	(??_matrix_multiply_c5_c1+9)^0,w,c
  2103  002054  22DA               	addwfc	fsr2h,f,c
  2104  002056  CFDE F00B          	movff	postinc2,___flmul@a
  2105  00205A  CFDE F00C          	movff	postinc2,___flmul@a+1
  2106  00205E  CFDE F00D          	movff	postinc2,___flmul@a+2
  2107  002062  CFDE F00E          	movff	postinc2,___flmul@a+3
  2108  002066  C038  F001         	movff	matrix_multiply_c5_c1@i,___wmul@multiplier
  2109  00206A  C039  F002         	movff	matrix_multiply_c5_c1@i+1,___wmul@multiplier+1
  2110  00206E  0E00               	movlw	0
  2111  002070  6E04               	movwf	(___wmul@multiplicand+1)^0,c
  2112  002072  0E14               	movlw	20
  2113  002074  6E03               	movwf	___wmul@multiplicand^0,c
  2114  002076  ECDB  F014         	call	___wmul	;wreg free
  2115  00207A  C026  F036         	movff	matrix_multiply_c5_c1@M1,??_matrix_multiply_c5_c1+10
  2116  00207E  C027  F037         	movff	matrix_multiply_c5_c1@M1+1,??_matrix_multiply_c5_c1+11
  2117  002082  5001               	movf	?___wmul^0,w,c
  2118  002084  2636               	addwf	(??_matrix_multiply_c5_c1+10)^0,f,c
  2119  002086  5002               	movf	(?___wmul+1)^0,w,c
  2120  002088  2237               	addwfc	(??_matrix_multiply_c5_c1+11)^0,f,c
  2121  00208A  90D8               	bcf	status,0,c
  2122  00208C  343A               	rlcf	matrix_multiply_c5_c1@k^0,w,c
  2123  00208E  6ED9               	movwf	fsr2l,c
  2124  002090  343B               	rlcf	(matrix_multiply_c5_c1@k+1)^0,w,c
  2125  002092  6EDA               	movwf	fsr2h,c
  2126  002094  90D8               	bcf	status,0,c
  2127  002096  36D9               	rlcf	fsr2l,f,c
  2128  002098  36DA               	rlcf	fsr2h,f,c
  2129  00209A  5036               	movf	(??_matrix_multiply_c5_c1+10)^0,w,c
  2130  00209C  26D9               	addwf	fsr2l,f,c
  2131  00209E  5037               	movf	(??_matrix_multiply_c5_c1+11)^0,w,c
  2132  0020A0  22DA               	addwfc	fsr2h,f,c
  2133  0020A2  CFDE F007          	movff	postinc2,___flmul@b
  2134  0020A6  CFDE F008          	movff	postinc2,___flmul@b+1
  2135  0020AA  CFDE F009          	movff	postinc2,___flmul@b+2
  2136  0020AE  CFDE F00A          	movff	postinc2,___flmul@b+3
  2137  0020B2  EC80  F00A         	call	___flmul	;wreg free
  2138  0020B6  C007  F022         	movff	?___flmul,___asfladd@f2
  2139  0020BA  C008  F023         	movff	?___flmul+1,___asfladd@f2+1
  2140  0020BE  C009  F024         	movff	?___flmul+2,___asfladd@f2+2
  2141  0020C2  C00A  F025         	movff	?___flmul+3,___asfladd@f2+3
  2142  0020C6  ECB8  F014         	call	___asfladd	;wreg free
  2143  0020CA                     
  2144                           ;final_control.c: 294:             }
  2145  0020CA  4A3A               	infsnz	matrix_multiply_c5_c1@k^0,f,c
  2146  0020CC  2A3B               	incf	(matrix_multiply_c5_c1@k+1)^0,f,c
  2147  0020CE  BE3B               	btfsc	(matrix_multiply_c5_c1@k+1)^0,7,c
  2148  0020D0  EF73  F010         	goto	u1711
  2149  0020D4  503B               	movf	(matrix_multiply_c5_c1@k+1)^0,w,c
  2150  0020D6  E109               	bnz	u1710
  2151  0020D8  0E05               	movlw	5
  2152  0020DA  5C3A               	subwf	matrix_multiply_c5_c1@k^0,w,c
  2153  0020DC  A0D8               	btfss	status,0,c
  2154  0020DE  EF73  F010         	goto	u1711
  2155  0020E2  EF75  F010         	goto	u1710
  2156  0020E6                     u1711:
  2157  0020E6  EFEB  F00F         	goto	l2367
  2158  0020EA                     u1710:
  2159  0020EA                     
  2160                           ;final_control.c: 295:         }
  2161  0020EA  4A3C               	infsnz	matrix_multiply_c5_c1@j^0,f,c
  2162  0020EC  2A3D               	incf	(matrix_multiply_c5_c1@j+1)^0,f,c
  2163  0020EE  BE3D               	btfsc	(matrix_multiply_c5_c1@j+1)^0,7,c
  2164  0020F0  EF82  F010         	goto	u1721
  2165  0020F4  503D               	movf	(matrix_multiply_c5_c1@j+1)^0,w,c
  2166  0020F6  E108               	bnz	u1720
  2167  0020F8  043C               	decf	matrix_multiply_c5_c1@j^0,w,c
  2168  0020FA  A0D8               	btfss	status,0,c
  2169  0020FC  EF82  F010         	goto	u1721
  2170  002100  EF84  F010         	goto	u1720
  2171  002104                     u1721:
  2172  002104  EFC1  F00F         	goto	l2359
  2173  002108                     u1720:
  2174  002108                     
  2175                           ;final_control.c: 296:     }
  2176  002108  4A38               	infsnz	matrix_multiply_c5_c1@i^0,f,c
  2177  00210A  2A39               	incf	(matrix_multiply_c5_c1@i+1)^0,f,c
  2178  00210C                     l2379:
  2179  00210C  5045               	movf	_fM1^0,w,c	;volatile
  2180  00210E  5C38               	subwf	matrix_multiply_c5_c1@i^0,w,c
  2181  002110  5039               	movf	(matrix_multiply_c5_c1@i+1)^0,w,c
  2182  002112  0A80               	xorlw	128
  2183  002114  6E2C               	movwf	??_matrix_multiply_c5_c1^0,c
  2184  002116  5046               	movf	(_fM1+1)^0,w,c	;volatile
  2185  002118  0A80               	xorlw	128
  2186  00211A  582C               	subwfb	??_matrix_multiply_c5_c1^0,w,c
  2187  00211C  A0D8               	btfss	status,0,c
  2188  00211E  EF93  F010         	goto	u1731
  2189  002122  EF95  F010         	goto	u1730
  2190  002126                     u1731:
  2191  002126  EFBD  F00F         	goto	l2353
  2192  00212A                     u1730:
  2193  00212A  0012               	return		;funcret
  2194  00212C                     __end_of_matrix_multiply_c5_c1:
  2195                           	callstack 0
  2196                           
  2197 ;; *************** function ___wmul *****************
  2198 ;; Defined at:
  2199 ;;		line 15 in file "C:\Program Files\Microchip\xc8\v2.31\pic\sources\c99\common\Umul16.c"
  2200 ;; Parameters:    Size  Location     Type
  2201 ;;  multiplier      2    0[COMRAM] unsigned int 
  2202 ;;  multiplicand    2    2[COMRAM] unsigned int 
  2203 ;; Auto vars:     Size  Location     Type
  2204 ;;  product         2    4[COMRAM] unsigned int 
  2205 ;; Return value:  Size  Location     Type
  2206 ;;                  2    0[COMRAM] unsigned int 
  2207 ;; Registers used:
  2208 ;;		wreg, status,2, status,0, prodl, prodh
  2209 ;; Tracked objects:
  2210 ;;		On entry : 0/0
  2211 ;;		On exit  : 0/0
  2212 ;;		Unchanged: 0/0
  2213 ;; Data sizes:     COMRAM   BANK0   BANK1   BANK2   BANK3   BANK4   BANK5   BANK6   BANK7   BANK8   BANK9  BANK10  BANK1
      +1  BANK12  BANK13  BANK14  BANK15
  2214 ;;      Params:         4       0       0       0       0       0       0       0       0       0       0       0       
      +0       0       0       0       0
  2215 ;;      Locals:         2       0       0       0       0       0       0       0       0       0       0       0       
      +0       0       0       0       0
  2216 ;;      Temps:          0       0       0       0       0       0       0       0       0       0       0       0       
      +0       0       0       0       0
  2217 ;;      Totals:         6       0       0       0       0       0       0       0       0       0       0       0       
      +0       0       0       0       0
  2218 ;;Total ram usage:        6 bytes
  2219 ;; Hardware stack levels used:    1
  2220 ;; This function calls:
  2221 ;;		Nothing
  2222 ;; This function is called by:
  2223 ;;		_matrix_multiply_c5_c1
  2224 ;; This function uses a non-reentrant model
  2225 ;;
  2226                           
  2227                           	psect	text5
  2228  0029B6                     __ptext5:
  2229                           	callstack 0
  2230  0029B6                     ___wmul:
  2231                           	callstack 28
  2232  0029B6  5001               	movf	___wmul@multiplier^0,w,c
  2233  0029B8  0203               	mulwf	___wmul@multiplicand^0,c
  2234  0029BA  CFF3 F005          	movff	prodl,___wmul@product
  2235  0029BE  CFF4 F006          	movff	prodh,___wmul@product+1
  2236  0029C2  5001               	movf	___wmul@multiplier^0,w,c
  2237  0029C4  0204               	mulwf	(___wmul@multiplicand+1)^0,c
  2238  0029C6  50F3               	movf	243,w,c
  2239  0029C8  2606               	addwf	(___wmul@product+1)^0,f,c
  2240  0029CA  5002               	movf	(___wmul@multiplier+1)^0,w,c
  2241  0029CC  0203               	mulwf	___wmul@multiplicand^0,c
  2242  0029CE  50F3               	movf	243,w,c
  2243  0029D0  2606               	addwf	(___wmul@product+1)^0,f,c
  2244  0029D2  C005  F001         	movff	___wmul@product,?___wmul
  2245  0029D6  C006  F002         	movff	___wmul@product+1,?___wmul+1
  2246  0029DA  0012               	return		;funcret
  2247  0029DC                     __end_of___wmul:
  2248                           	callstack 0
  2249                           
  2250 ;; *************** function _matrix_multiply_c4_c1 *****************
  2251 ;; Defined at:
  2252 ;;		line 274 in file "final_control.c"
  2253 ;; Parameters:    Size  Location     Type
  2254 ;;  M1              2   37[COMRAM] PTR volatile [4]
  2255 ;;		 -> Ao(64), nKd(16), A(64), 
  2256 ;;  M2              2   39[COMRAM] PTR volatile [1]
  2257 ;;		 -> Yo(16), Xo_0(16), Y(16), X_0(16), 
  2258 ;;  res             2   41[COMRAM] PTR volatile [1]
  2259 ;;		 -> aux_4(16), aux_3(4), aux_1(16), 
  2260 ;; Auto vars:     Size  Location     Type
  2261 ;;  j               2   61[COMRAM] int 
  2262 ;;  k               2   59[COMRAM] int 
  2263 ;;  i               2   57[COMRAM] int 
  2264 ;; Return value:  Size  Location     Type
  2265 ;;                  1    wreg      void 
  2266 ;; Registers used:
  2267 ;;		wreg, fsr2l, fsr2h, status,2, status,0, prodl, prodh, cstack
  2268 ;; Tracked objects:
  2269 ;;		On entry : 0/0
  2270 ;;		On exit  : 0/0
  2271 ;;		Unchanged: 0/0
  2272 ;; Data sizes:     COMRAM   BANK0   BANK1   BANK2   BANK3   BANK4   BANK5   BANK6   BANK7   BANK8   BANK9  BANK10  BANK1
      +1  BANK12  BANK13  BANK14  BANK15
  2273 ;;      Params:         6       0       0       0       0       0       0       0       0       0       0       0       
      +0       0       0       0       0
  2274 ;;      Locals:         6       0       0       0       0       0       0       0       0       0       0       0       
      +0       0       0       0       0
  2275 ;;      Temps:         14       0       0       0       0       0       0       0       0       0       0       0       
      +0       0       0       0       0
  2276 ;;      Totals:        26       0       0       0       0       0       0       0       0       0       0       0       
      +0       0       0       0       0
  2277 ;;Total ram usage:       26 bytes
  2278 ;; Hardware stack levels used:    1
  2279 ;; Hardware stack levels required when called:    2
  2280 ;; This function calls:
  2281 ;;		___asfladd
  2282 ;;		___flmul
  2283 ;; This function is called by:
  2284 ;;		_plantaPLUSobservador
  2285 ;;		_planta
  2286 ;;		_plantaPLUSobservadorPLUSperturbacion
  2287 ;; This function uses a non-reentrant model
  2288 ;;
  2289                           
  2290                           	psect	text6
  2291  001D8A                     __ptext6:
  2292                           	callstack 0
  2293  001D8A                     _matrix_multiply_c4_c1:
  2294                           	callstack 27
  2295  001D8A                     
  2296                           ;final_control.c: 276:     int i=0,j=0,k=0;
  2297  001D8A  0E00               	movlw	0
  2298  001D8C  6E3B               	movwf	(matrix_multiply_c4_c1@i+1)^0,c
  2299  001D8E  0E00               	movlw	0
  2300  001D90  6E3A               	movwf	matrix_multiply_c4_c1@i^0,c
  2301  001D92  0E00               	movlw	0
  2302  001D94  6E3D               	movwf	(matrix_multiply_c4_c1@k+1)^0,c
  2303  001D96  0E00               	movlw	0
  2304  001D98  6E3C               	movwf	matrix_multiply_c4_c1@k^0,c
  2305                           
  2306                           ;final_control.c: 277:     for(i=0;i<fM1;i++){
  2307  001D9A  0E00               	movlw	0
  2308  001D9C  6E3B               	movwf	(matrix_multiply_c4_c1@i+1)^0,c
  2309  001D9E  0E00               	movlw	0
  2310  001DA0  6E3A               	movwf	matrix_multiply_c4_c1@i^0,c
  2311  001DA2  EF9F  F00F         	goto	l2301
  2312  001DA6                     l2275:
  2313                           
  2314                           ;final_control.c: 278:         for(j=0;j<1;j++){
  2315  001DA6  0E00               	movlw	0
  2316  001DA8  6E3F               	movwf	(matrix_multiply_c4_c1@j+1)^0,c
  2317  001DAA  0E00               	movlw	0
  2318  001DAC  6E3E               	movwf	matrix_multiply_c4_c1@j^0,c
  2319  001DAE                     l2281:
  2320                           
  2321                           ;final_control.c: 279:             res[i][j]=0;
  2322  001DAE  C03A  F02C         	movff	matrix_multiply_c4_c1@i,??_matrix_multiply_c4_c1
  2323  001DB2  C03B  F02D         	movff	matrix_multiply_c4_c1@i+1,??_matrix_multiply_c4_c1+1
  2324  001DB6  90D8               	bcf	status,0,c
  2325  001DB8  362C               	rlcf	??_matrix_multiply_c4_c1^0,f,c
  2326  001DBA  362D               	rlcf	(??_matrix_multiply_c4_c1+1)^0,f,c
  2327  001DBC  90D8               	bcf	status,0,c
  2328  001DBE  362C               	rlcf	??_matrix_multiply_c4_c1^0,f,c
  2329  001DC0  362D               	rlcf	(??_matrix_multiply_c4_c1+1)^0,f,c
  2330  001DC2  C02A  F02E         	movff	matrix_multiply_c4_c1@res,??_matrix_multiply_c4_c1+2
  2331  001DC6  C02B  F02F         	movff	matrix_multiply_c4_c1@res+1,??_matrix_multiply_c4_c1+3
  2332  001DCA  502C               	movf	??_matrix_multiply_c4_c1^0,w,c
  2333  001DCC  262E               	addwf	(??_matrix_multiply_c4_c1+2)^0,f,c
  2334  001DCE  502D               	movf	(??_matrix_multiply_c4_c1+1)^0,w,c
  2335  001DD0  222F               	addwfc	(??_matrix_multiply_c4_c1+3)^0,f,c
  2336  001DD2  90D8               	bcf	status,0,c
  2337  001DD4  343E               	rlcf	matrix_multiply_c4_c1@j^0,w,c
  2338  001DD6  6ED9               	movwf	fsr2l,c
  2339  001DD8  343F               	rlcf	(matrix_multiply_c4_c1@j+1)^0,w,c
  2340  001DDA  6EDA               	movwf	fsr2h,c
  2341  001DDC  90D8               	bcf	status,0,c
  2342  001DDE  36D9               	rlcf	fsr2l,f,c
  2343  001DE0  36DA               	rlcf	fsr2h,f,c
  2344  001DE2  502E               	movf	(??_matrix_multiply_c4_c1+2)^0,w,c
  2345  001DE4  26D9               	addwf	fsr2l,f,c
  2346  001DE6  502F               	movf	(??_matrix_multiply_c4_c1+3)^0,w,c
  2347  001DE8  22DA               	addwfc	fsr2h,f,c
  2348  001DEA  0E00               	movlw	0
  2349  001DEC  6EDE               	movwf	postinc2,c
  2350  001DEE  0E00               	movlw	0
  2351  001DF0  6EDE               	movwf	postinc2,c
  2352  001DF2  0E00               	movlw	0
  2353  001DF4  6EDE               	movwf	postinc2,c
  2354  001DF6  0E00               	movlw	0
  2355  001DF8  6EDD               	movwf	postdec2,c
  2356  001DFA                     
  2357                           ;final_control.c: 280:             for(k=0;k<4;k++){
  2358  001DFA  0E00               	movlw	0
  2359  001DFC  6E3D               	movwf	(matrix_multiply_c4_c1@k+1)^0,c
  2360  001DFE  0E00               	movlw	0
  2361  001E00  6E3C               	movwf	matrix_multiply_c4_c1@k^0,c
  2362  001E02                     l2289:
  2363                           
  2364                           ;final_control.c: 281:                 res[i][j]+=M1[i][k]*M2[k][j];
  2365  001E02  C03E  F02C         	movff	matrix_multiply_c4_c1@j,??_matrix_multiply_c4_c1
  2366  001E06  C03F  F02D         	movff	matrix_multiply_c4_c1@j+1,??_matrix_multiply_c4_c1+1
  2367  001E0A  90D8               	bcf	status,0,c
  2368  001E0C  362C               	rlcf	??_matrix_multiply_c4_c1^0,f,c
  2369  001E0E  362D               	rlcf	(??_matrix_multiply_c4_c1+1)^0,f,c
  2370  001E10  90D8               	bcf	status,0,c
  2371  001E12  362C               	rlcf	??_matrix_multiply_c4_c1^0,f,c
  2372  001E14  362D               	rlcf	(??_matrix_multiply_c4_c1+1)^0,f,c
  2373  001E16  C03A  F02E         	movff	matrix_multiply_c4_c1@i,??_matrix_multiply_c4_c1+2
  2374  001E1A  C03B  F02F         	movff	matrix_multiply_c4_c1@i+1,??_matrix_multiply_c4_c1+3
  2375  001E1E  90D8               	bcf	status,0,c
  2376  001E20  362E               	rlcf	(??_matrix_multiply_c4_c1+2)^0,f,c
  2377  001E22  362F               	rlcf	(??_matrix_multiply_c4_c1+3)^0,f,c
  2378  001E24  90D8               	bcf	status,0,c
  2379  001E26  362E               	rlcf	(??_matrix_multiply_c4_c1+2)^0,f,c
  2380  001E28  362F               	rlcf	(??_matrix_multiply_c4_c1+3)^0,f,c
  2381  001E2A  C02A  F030         	movff	matrix_multiply_c4_c1@res,??_matrix_multiply_c4_c1+4
  2382  001E2E  C02B  F031         	movff	matrix_multiply_c4_c1@res+1,??_matrix_multiply_c4_c1+5
  2383  001E32  502E               	movf	(??_matrix_multiply_c4_c1+2)^0,w,c
  2384  001E34  2630               	addwf	(??_matrix_multiply_c4_c1+4)^0,f,c
  2385  001E36  502F               	movf	(??_matrix_multiply_c4_c1+3)^0,w,c
  2386  001E38  2231               	addwfc	(??_matrix_multiply_c4_c1+5)^0,f,c
  2387  001E3A  502C               	movf	??_matrix_multiply_c4_c1^0,w,c
  2388  001E3C  2430               	addwf	(??_matrix_multiply_c4_c1+4)^0,w,c
  2389  001E3E  6E20               	movwf	___asfladd@f1p^0,c
  2390  001E40  502D               	movf	(??_matrix_multiply_c4_c1+1)^0,w,c
  2391  001E42  2031               	addwfc	(??_matrix_multiply_c4_c1+5)^0,w,c
  2392  001E44  6E21               	movwf	(___asfladd@f1p+1)^0,c
  2393  001E46  C03C  F032         	movff	matrix_multiply_c4_c1@k,??_matrix_multiply_c4_c1+6
  2394  001E4A  C03D  F033         	movff	matrix_multiply_c4_c1@k+1,??_matrix_multiply_c4_c1+7
  2395  001E4E  90D8               	bcf	status,0,c
  2396  001E50  3632               	rlcf	(??_matrix_multiply_c4_c1+6)^0,f,c
  2397  001E52  3633               	rlcf	(??_matrix_multiply_c4_c1+7)^0,f,c
  2398  001E54  90D8               	bcf	status,0,c
  2399  001E56  3632               	rlcf	(??_matrix_multiply_c4_c1+6)^0,f,c
  2400  001E58  3633               	rlcf	(??_matrix_multiply_c4_c1+7)^0,f,c
  2401  001E5A  C028  F034         	movff	matrix_multiply_c4_c1@M2,??_matrix_multiply_c4_c1+8
  2402  001E5E  C029  F035         	movff	matrix_multiply_c4_c1@M2+1,??_matrix_multiply_c4_c1+9
  2403  001E62  5032               	movf	(??_matrix_multiply_c4_c1+6)^0,w,c
  2404  001E64  2634               	addwf	(??_matrix_multiply_c4_c1+8)^0,f,c
  2405  001E66  5033               	movf	(??_matrix_multiply_c4_c1+7)^0,w,c
  2406  001E68  2235               	addwfc	(??_matrix_multiply_c4_c1+9)^0,f,c
  2407  001E6A  90D8               	bcf	status,0,c
  2408  001E6C  343E               	rlcf	matrix_multiply_c4_c1@j^0,w,c
  2409  001E6E  6ED9               	movwf	fsr2l,c
  2410  001E70  343F               	rlcf	(matrix_multiply_c4_c1@j+1)^0,w,c
  2411  001E72  6EDA               	movwf	fsr2h,c
  2412  001E74  90D8               	bcf	status,0,c
  2413  001E76  36D9               	rlcf	fsr2l,f,c
  2414  001E78  36DA               	rlcf	fsr2h,f,c
  2415  001E7A  5034               	movf	(??_matrix_multiply_c4_c1+8)^0,w,c
  2416  001E7C  26D9               	addwf	fsr2l,f,c
  2417  001E7E  5035               	movf	(??_matrix_multiply_c4_c1+9)^0,w,c
  2418  001E80  22DA               	addwfc	fsr2h,f,c
  2419  001E82  CFDE F00B          	movff	postinc2,___flmul@a
  2420  001E86  CFDE F00C          	movff	postinc2,___flmul@a+1
  2421  001E8A  CFDE F00D          	movff	postinc2,___flmul@a+2
  2422  001E8E  CFDE F00E          	movff	postinc2,___flmul@a+3
  2423  001E92  C03A  F036         	movff	matrix_multiply_c4_c1@i,??_matrix_multiply_c4_c1+10
  2424  001E96  C03B  F037         	movff	matrix_multiply_c4_c1@i+1,??_matrix_multiply_c4_c1+11
  2425  001E9A  3A36               	swapf	(??_matrix_multiply_c4_c1+10)^0,f,c
  2426  001E9C  3A37               	swapf	(??_matrix_multiply_c4_c1+11)^0,f,c
  2427  001E9E  0EF0               	movlw	240
  2428  001EA0  1637               	andwf	(??_matrix_multiply_c4_c1+11)^0,f,c
  2429  001EA2  5036               	movf	(??_matrix_multiply_c4_c1+10)^0,w,c
  2430  001EA4  0B0F               	andlw	15
  2431  001EA6  1237               	iorwf	(??_matrix_multiply_c4_c1+11)^0,f,c
  2432  001EA8  0EF0               	movlw	240
  2433  001EAA  1636               	andwf	(??_matrix_multiply_c4_c1+10)^0,f,c
  2434  001EAC  C026  F038         	movff	matrix_multiply_c4_c1@M1,??_matrix_multiply_c4_c1+12
  2435  001EB0  C027  F039         	movff	matrix_multiply_c4_c1@M1+1,??_matrix_multiply_c4_c1+13
  2436  001EB4  5036               	movf	(??_matrix_multiply_c4_c1+10)^0,w,c
  2437  001EB6  2638               	addwf	(??_matrix_multiply_c4_c1+12)^0,f,c
  2438  001EB8  5037               	movf	(??_matrix_multiply_c4_c1+11)^0,w,c
  2439  001EBA  2239               	addwfc	(??_matrix_multiply_c4_c1+13)^0,f,c
  2440  001EBC  90D8               	bcf	status,0,c
  2441  001EBE  343C               	rlcf	matrix_multiply_c4_c1@k^0,w,c
  2442  001EC0  6ED9               	movwf	fsr2l,c
  2443  001EC2  343D               	rlcf	(matrix_multiply_c4_c1@k+1)^0,w,c
  2444  001EC4  6EDA               	movwf	fsr2h,c
  2445  001EC6  90D8               	bcf	status,0,c
  2446  001EC8  36D9               	rlcf	fsr2l,f,c
  2447  001ECA  36DA               	rlcf	fsr2h,f,c
  2448  001ECC  5038               	movf	(??_matrix_multiply_c4_c1+12)^0,w,c
  2449  001ECE  26D9               	addwf	fsr2l,f,c
  2450  001ED0  5039               	movf	(??_matrix_multiply_c4_c1+13)^0,w,c
  2451  001ED2  22DA               	addwfc	fsr2h,f,c
  2452  001ED4  CFDE F007          	movff	postinc2,___flmul@b
  2453  001ED8  CFDE F008          	movff	postinc2,___flmul@b+1
  2454  001EDC  CFDE F009          	movff	postinc2,___flmul@b+2
  2455  001EE0  CFDE F00A          	movff	postinc2,___flmul@b+3
  2456  001EE4  EC80  F00A         	call	___flmul	;wreg free
  2457  001EE8  C007  F022         	movff	?___flmul,___asfladd@f2
  2458  001EEC  C008  F023         	movff	?___flmul+1,___asfladd@f2+1
  2459  001EF0  C009  F024         	movff	?___flmul+2,___asfladd@f2+2
  2460  001EF4  C00A  F025         	movff	?___flmul+3,___asfladd@f2+3
  2461  001EF8  ECB8  F014         	call	___asfladd	;wreg free
  2462  001EFC                     
  2463                           ;final_control.c: 282:             }
  2464  001EFC  4A3C               	infsnz	matrix_multiply_c4_c1@k^0,f,c
  2465  001EFE  2A3D               	incf	(matrix_multiply_c4_c1@k+1)^0,f,c
  2466  001F00  BE3D               	btfsc	(matrix_multiply_c4_c1@k+1)^0,7,c
  2467  001F02  EF8C  F00F         	goto	u1631
  2468  001F06  503D               	movf	(matrix_multiply_c4_c1@k+1)^0,w,c
  2469  001F08  E109               	bnz	u1630
  2470  001F0A  0E04               	movlw	4
  2471  001F0C  5C3C               	subwf	matrix_multiply_c4_c1@k^0,w,c
  2472  001F0E  A0D8               	btfss	status,0,c
  2473  001F10  EF8C  F00F         	goto	u1631
  2474  001F14  EF8E  F00F         	goto	u1630
  2475  001F18                     u1631:
  2476  001F18  EF01  F00F         	goto	l2289
  2477  001F1C                     u1630:
  2478  001F1C                     
  2479                           ;final_control.c: 283:         }
  2480  001F1C  4A3E               	infsnz	matrix_multiply_c4_c1@j^0,f,c
  2481  001F1E  2A3F               	incf	(matrix_multiply_c4_c1@j+1)^0,f,c
  2482  001F20  BE3F               	btfsc	(matrix_multiply_c4_c1@j+1)^0,7,c
  2483  001F22  EF9B  F00F         	goto	u1641
  2484  001F26  503F               	movf	(matrix_multiply_c4_c1@j+1)^0,w,c
  2485  001F28  E108               	bnz	u1640
  2486  001F2A  043E               	decf	matrix_multiply_c4_c1@j^0,w,c
  2487  001F2C  A0D8               	btfss	status,0,c
  2488  001F2E  EF9B  F00F         	goto	u1641
  2489  001F32  EF9D  F00F         	goto	u1640
  2490  001F36                     u1641:
  2491  001F36  EFD7  F00E         	goto	l2281
  2492  001F3A                     u1640:
  2493  001F3A                     
  2494                           ;final_control.c: 284:     }
  2495  001F3A  4A3A               	infsnz	matrix_multiply_c4_c1@i^0,f,c
  2496  001F3C  2A3B               	incf	(matrix_multiply_c4_c1@i+1)^0,f,c
  2497  001F3E                     l2301:
  2498  001F3E  5045               	movf	_fM1^0,w,c	;volatile
  2499  001F40  5C3A               	subwf	matrix_multiply_c4_c1@i^0,w,c
  2500  001F42  503B               	movf	(matrix_multiply_c4_c1@i+1)^0,w,c
  2501  001F44  0A80               	xorlw	128
  2502  001F46  6E2C               	movwf	??_matrix_multiply_c4_c1^0,c
  2503  001F48  5046               	movf	(_fM1+1)^0,w,c	;volatile
  2504  001F4A  0A80               	xorlw	128
  2505  001F4C  582C               	subwfb	??_matrix_multiply_c4_c1^0,w,c
  2506  001F4E  A0D8               	btfss	status,0,c
  2507  001F50  EFAC  F00F         	goto	u1651
  2508  001F54  EFAE  F00F         	goto	u1650
  2509  001F58                     u1651:
  2510  001F58  EFD3  F00E         	goto	l2275
  2511  001F5C                     u1650:
  2512  001F5C  0012               	return		;funcret
  2513  001F5E                     __end_of_matrix_multiply_c4_c1:
  2514                           	callstack 0
  2515                           
  2516 ;; *************** function _matrix_multiply_c1_c1 *****************
  2517 ;; Defined at:
  2518 ;;		line 262 in file "final_control.c"
  2519 ;; Parameters:    Size  Location     Type
  2520 ;;  M1              2   37[COMRAM] PTR volatile [1]
  2521 ;;		 -> B(16), 
  2522 ;;  M2              2   39[COMRAM] PTR volatile [1]
  2523 ;;		 -> U(4), 
  2524 ;;  res             2   41[COMRAM] PTR volatile [1]
  2525 ;;		 -> aux_2(16), 
  2526 ;; Auto vars:     Size  Location     Type
  2527 ;;  j               2   61[COMRAM] int 
  2528 ;;  k               2   59[COMRAM] int 
  2529 ;;  i               2   57[COMRAM] int 
  2530 ;; Return value:  Size  Location     Type
  2531 ;;                  1    wreg      void 
  2532 ;; Registers used:
  2533 ;;		wreg, fsr2l, fsr2h, status,2, status,0, prodl, prodh, cstack
  2534 ;; Tracked objects:
  2535 ;;		On entry : 0/0
  2536 ;;		On exit  : 0/0
  2537 ;;		Unchanged: 0/0
  2538 ;; Data sizes:     COMRAM   BANK0   BANK1   BANK2   BANK3   BANK4   BANK5   BANK6   BANK7   BANK8   BANK9  BANK10  BANK1
      +1  BANK12  BANK13  BANK14  BANK15
  2539 ;;      Params:         6       0       0       0       0       0       0       0       0       0       0       0       
      +0       0       0       0       0
  2540 ;;      Locals:         6       0       0       0       0       0       0       0       0       0       0       0       
      +0       0       0       0       0
  2541 ;;      Temps:         14       0       0       0       0       0       0       0       0       0       0       0       
      +0       0       0       0       0
  2542 ;;      Totals:        26       0       0       0       0       0       0       0       0       0       0       0       
      +0       0       0       0       0
  2543 ;;Total ram usage:       26 bytes
  2544 ;; Hardware stack levels used:    1
  2545 ;; Hardware stack levels required when called:    2
  2546 ;; This function calls:
  2547 ;;		___asfladd
  2548 ;;		___flmul
  2549 ;; This function is called by:
  2550 ;;		_plantaPLUSobservador
  2551 ;;		_planta
  2552 ;;		_plantaPLUSobservadorPLUSperturbacion
  2553 ;; This function uses a non-reentrant model
  2554 ;;
  2555                           
  2556                           	psect	text7
  2557  00212C                     __ptext7:
  2558                           	callstack 0
  2559  00212C                     _matrix_multiply_c1_c1:
  2560                           	callstack 27
  2561  00212C                     
  2562                           ;final_control.c: 264:     int i=0,j=0,k=0;
  2563  00212C  0E00               	movlw	0
  2564  00212E  6E3B               	movwf	(matrix_multiply_c1_c1@i+1)^0,c
  2565  002130  0E00               	movlw	0
  2566  002132  6E3A               	movwf	matrix_multiply_c1_c1@i^0,c
  2567  002134  0E00               	movlw	0
  2568  002136  6E3D               	movwf	(matrix_multiply_c1_c1@k+1)^0,c
  2569  002138  0E00               	movlw	0
  2570  00213A  6E3C               	movwf	matrix_multiply_c1_c1@k^0,c
  2571                           
  2572                           ;final_control.c: 265:     for(i=0;i<fM1;i++){
  2573  00213C  0E00               	movlw	0
  2574  00213E  6E3B               	movwf	(matrix_multiply_c1_c1@i+1)^0,c
  2575  002140  0E00               	movlw	0
  2576  002142  6E3A               	movwf	matrix_multiply_c1_c1@i^0,c
  2577  002144  EF6C  F011         	goto	l2331
  2578  002148                     l2305:
  2579                           
  2580                           ;final_control.c: 266:         for(j=0;j<1;j++){
  2581  002148  0E00               	movlw	0
  2582  00214A  6E3F               	movwf	(matrix_multiply_c1_c1@j+1)^0,c
  2583  00214C  0E00               	movlw	0
  2584  00214E  6E3E               	movwf	matrix_multiply_c1_c1@j^0,c
  2585  002150                     l2311:
  2586                           
  2587                           ;final_control.c: 267:             res[i][j]=0;
  2588  002150  C03A  F02C         	movff	matrix_multiply_c1_c1@i,??_matrix_multiply_c1_c1
  2589  002154  C03B  F02D         	movff	matrix_multiply_c1_c1@i+1,??_matrix_multiply_c1_c1+1
  2590  002158  90D8               	bcf	status,0,c
  2591  00215A  362C               	rlcf	??_matrix_multiply_c1_c1^0,f,c
  2592  00215C  362D               	rlcf	(??_matrix_multiply_c1_c1+1)^0,f,c
  2593  00215E  90D8               	bcf	status,0,c
  2594  002160  362C               	rlcf	??_matrix_multiply_c1_c1^0,f,c
  2595  002162  362D               	rlcf	(??_matrix_multiply_c1_c1+1)^0,f,c
  2596  002164  C02A  F02E         	movff	matrix_multiply_c1_c1@res,??_matrix_multiply_c1_c1+2
  2597  002168  C02B  F02F         	movff	matrix_multiply_c1_c1@res+1,??_matrix_multiply_c1_c1+3
  2598  00216C  502C               	movf	??_matrix_multiply_c1_c1^0,w,c
  2599  00216E  262E               	addwf	(??_matrix_multiply_c1_c1+2)^0,f,c
  2600  002170  502D               	movf	(??_matrix_multiply_c1_c1+1)^0,w,c
  2601  002172  222F               	addwfc	(??_matrix_multiply_c1_c1+3)^0,f,c
  2602  002174  90D8               	bcf	status,0,c
  2603  002176  343E               	rlcf	matrix_multiply_c1_c1@j^0,w,c
  2604  002178  6ED9               	movwf	fsr2l,c
  2605  00217A  343F               	rlcf	(matrix_multiply_c1_c1@j+1)^0,w,c
  2606  00217C  6EDA               	movwf	fsr2h,c
  2607  00217E  90D8               	bcf	status,0,c
  2608  002180  36D9               	rlcf	fsr2l,f,c
  2609  002182  36DA               	rlcf	fsr2h,f,c
  2610  002184  502E               	movf	(??_matrix_multiply_c1_c1+2)^0,w,c
  2611  002186  26D9               	addwf	fsr2l,f,c
  2612  002188  502F               	movf	(??_matrix_multiply_c1_c1+3)^0,w,c
  2613  00218A  22DA               	addwfc	fsr2h,f,c
  2614  00218C  0E00               	movlw	0
  2615  00218E  6EDE               	movwf	postinc2,c
  2616  002190  0E00               	movlw	0
  2617  002192  6EDE               	movwf	postinc2,c
  2618  002194  0E00               	movlw	0
  2619  002196  6EDE               	movwf	postinc2,c
  2620  002198  0E00               	movlw	0
  2621  00219A  6EDD               	movwf	postdec2,c
  2622  00219C                     
  2623                           ;final_control.c: 268:             for(k=0;k<1;k++){
  2624  00219C  0E00               	movlw	0
  2625  00219E  6E3D               	movwf	(matrix_multiply_c1_c1@k+1)^0,c
  2626  0021A0  0E00               	movlw	0
  2627  0021A2  6E3C               	movwf	matrix_multiply_c1_c1@k^0,c
  2628  0021A4                     l2319:
  2629                           
  2630                           ;final_control.c: 269:                 res[i][j]+=M1[i][k]*M2[k][j];
  2631  0021A4  C03E  F02C         	movff	matrix_multiply_c1_c1@j,??_matrix_multiply_c1_c1
  2632  0021A8  C03F  F02D         	movff	matrix_multiply_c1_c1@j+1,??_matrix_multiply_c1_c1+1
  2633  0021AC  90D8               	bcf	status,0,c
  2634  0021AE  362C               	rlcf	??_matrix_multiply_c1_c1^0,f,c
  2635  0021B0  362D               	rlcf	(??_matrix_multiply_c1_c1+1)^0,f,c
  2636  0021B2  90D8               	bcf	status,0,c
  2637  0021B4  362C               	rlcf	??_matrix_multiply_c1_c1^0,f,c
  2638  0021B6  362D               	rlcf	(??_matrix_multiply_c1_c1+1)^0,f,c
  2639  0021B8  C03A  F02E         	movff	matrix_multiply_c1_c1@i,??_matrix_multiply_c1_c1+2
  2640  0021BC  C03B  F02F         	movff	matrix_multiply_c1_c1@i+1,??_matrix_multiply_c1_c1+3
  2641  0021C0  90D8               	bcf	status,0,c
  2642  0021C2  362E               	rlcf	(??_matrix_multiply_c1_c1+2)^0,f,c
  2643  0021C4  362F               	rlcf	(??_matrix_multiply_c1_c1+3)^0,f,c
  2644  0021C6  90D8               	bcf	status,0,c
  2645  0021C8  362E               	rlcf	(??_matrix_multiply_c1_c1+2)^0,f,c
  2646  0021CA  362F               	rlcf	(??_matrix_multiply_c1_c1+3)^0,f,c
  2647  0021CC  C02A  F030         	movff	matrix_multiply_c1_c1@res,??_matrix_multiply_c1_c1+4
  2648  0021D0  C02B  F031         	movff	matrix_multiply_c1_c1@res+1,??_matrix_multiply_c1_c1+5
  2649  0021D4  502E               	movf	(??_matrix_multiply_c1_c1+2)^0,w,c
  2650  0021D6  2630               	addwf	(??_matrix_multiply_c1_c1+4)^0,f,c
  2651  0021D8  502F               	movf	(??_matrix_multiply_c1_c1+3)^0,w,c
  2652  0021DA  2231               	addwfc	(??_matrix_multiply_c1_c1+5)^0,f,c
  2653  0021DC  502C               	movf	??_matrix_multiply_c1_c1^0,w,c
  2654  0021DE  2430               	addwf	(??_matrix_multiply_c1_c1+4)^0,w,c
  2655  0021E0  6E20               	movwf	___asfladd@f1p^0,c
  2656  0021E2  502D               	movf	(??_matrix_multiply_c1_c1+1)^0,w,c
  2657  0021E4  2031               	addwfc	(??_matrix_multiply_c1_c1+5)^0,w,c
  2658  0021E6  6E21               	movwf	(___asfladd@f1p+1)^0,c
  2659  0021E8  C03C  F032         	movff	matrix_multiply_c1_c1@k,??_matrix_multiply_c1_c1+6
  2660  0021EC  C03D  F033         	movff	matrix_multiply_c1_c1@k+1,??_matrix_multiply_c1_c1+7
  2661  0021F0  90D8               	bcf	status,0,c
  2662  0021F2  3632               	rlcf	(??_matrix_multiply_c1_c1+6)^0,f,c
  2663  0021F4  3633               	rlcf	(??_matrix_multiply_c1_c1+7)^0,f,c
  2664  0021F6  90D8               	bcf	status,0,c
  2665  0021F8  3632               	rlcf	(??_matrix_multiply_c1_c1+6)^0,f,c
  2666  0021FA  3633               	rlcf	(??_matrix_multiply_c1_c1+7)^0,f,c
  2667  0021FC  C028  F034         	movff	matrix_multiply_c1_c1@M2,??_matrix_multiply_c1_c1+8
  2668  002200  C029  F035         	movff	matrix_multiply_c1_c1@M2+1,??_matrix_multiply_c1_c1+9
  2669  002204  5032               	movf	(??_matrix_multiply_c1_c1+6)^0,w,c
  2670  002206  2634               	addwf	(??_matrix_multiply_c1_c1+8)^0,f,c
  2671  002208  5033               	movf	(??_matrix_multiply_c1_c1+7)^0,w,c
  2672  00220A  2235               	addwfc	(??_matrix_multiply_c1_c1+9)^0,f,c
  2673  00220C  90D8               	bcf	status,0,c
  2674  00220E  343E               	rlcf	matrix_multiply_c1_c1@j^0,w,c
  2675  002210  6ED9               	movwf	fsr2l,c
  2676  002212  343F               	rlcf	(matrix_multiply_c1_c1@j+1)^0,w,c
  2677  002214  6EDA               	movwf	fsr2h,c
  2678  002216  90D8               	bcf	status,0,c
  2679  002218  36D9               	rlcf	fsr2l,f,c
  2680  00221A  36DA               	rlcf	fsr2h,f,c
  2681  00221C  5034               	movf	(??_matrix_multiply_c1_c1+8)^0,w,c
  2682  00221E  26D9               	addwf	fsr2l,f,c
  2683  002220  5035               	movf	(??_matrix_multiply_c1_c1+9)^0,w,c
  2684  002222  22DA               	addwfc	fsr2h,f,c
  2685  002224  CFDE F00B          	movff	postinc2,___flmul@a
  2686  002228  CFDE F00C          	movff	postinc2,___flmul@a+1
  2687  00222C  CFDE F00D          	movff	postinc2,___flmul@a+2
  2688  002230  CFDE F00E          	movff	postinc2,___flmul@a+3
  2689  002234  C03A  F036         	movff	matrix_multiply_c1_c1@i,??_matrix_multiply_c1_c1+10
  2690  002238  C03B  F037         	movff	matrix_multiply_c1_c1@i+1,??_matrix_multiply_c1_c1+11
  2691  00223C  90D8               	bcf	status,0,c
  2692  00223E  3636               	rlcf	(??_matrix_multiply_c1_c1+10)^0,f,c
  2693  002240  3637               	rlcf	(??_matrix_multiply_c1_c1+11)^0,f,c
  2694  002242  90D8               	bcf	status,0,c
  2695  002244  3636               	rlcf	(??_matrix_multiply_c1_c1+10)^0,f,c
  2696  002246  3637               	rlcf	(??_matrix_multiply_c1_c1+11)^0,f,c
  2697  002248  C026  F038         	movff	matrix_multiply_c1_c1@M1,??_matrix_multiply_c1_c1+12
  2698  00224C  C027  F039         	movff	matrix_multiply_c1_c1@M1+1,??_matrix_multiply_c1_c1+13
  2699  002250  5036               	movf	(??_matrix_multiply_c1_c1+10)^0,w,c
  2700  002252  2638               	addwf	(??_matrix_multiply_c1_c1+12)^0,f,c
  2701  002254  5037               	movf	(??_matrix_multiply_c1_c1+11)^0,w,c
  2702  002256  2239               	addwfc	(??_matrix_multiply_c1_c1+13)^0,f,c
  2703  002258  90D8               	bcf	status,0,c
  2704  00225A  343C               	rlcf	matrix_multiply_c1_c1@k^0,w,c
  2705  00225C  6ED9               	movwf	fsr2l,c
  2706  00225E  343D               	rlcf	(matrix_multiply_c1_c1@k+1)^0,w,c
  2707  002260  6EDA               	movwf	fsr2h,c
  2708  002262  90D8               	bcf	status,0,c
  2709  002264  36D9               	rlcf	fsr2l,f,c
  2710  002266  36DA               	rlcf	fsr2h,f,c
  2711  002268  5038               	movf	(??_matrix_multiply_c1_c1+12)^0,w,c
  2712  00226A  26D9               	addwf	fsr2l,f,c
  2713  00226C  5039               	movf	(??_matrix_multiply_c1_c1+13)^0,w,c
  2714  00226E  22DA               	addwfc	fsr2h,f,c
  2715  002270  CFDE F007          	movff	postinc2,___flmul@b
  2716  002274  CFDE F008          	movff	postinc2,___flmul@b+1
  2717  002278  CFDE F009          	movff	postinc2,___flmul@b+2
  2718  00227C  CFDE F00A          	movff	postinc2,___flmul@b+3
  2719  002280  EC80  F00A         	call	___flmul	;wreg free
  2720  002284  C007  F022         	movff	?___flmul,___asfladd@f2
  2721  002288  C008  F023         	movff	?___flmul+1,___asfladd@f2+1
  2722  00228C  C009  F024         	movff	?___flmul+2,___asfladd@f2+2
  2723  002290  C00A  F025         	movff	?___flmul+3,___asfladd@f2+3
  2724  002294  ECB8  F014         	call	___asfladd	;wreg free
  2725  002298                     
  2726                           ;final_control.c: 270:             }
  2727  002298  4A3C               	infsnz	matrix_multiply_c1_c1@k^0,f,c
  2728  00229A  2A3D               	incf	(matrix_multiply_c1_c1@k+1)^0,f,c
  2729  00229C  BE3D               	btfsc	(matrix_multiply_c1_c1@k+1)^0,7,c
  2730  00229E  EF59  F011         	goto	u1661
  2731  0022A2  503D               	movf	(matrix_multiply_c1_c1@k+1)^0,w,c
  2732  0022A4  E108               	bnz	u1660
  2733  0022A6  043C               	decf	matrix_multiply_c1_c1@k^0,w,c
  2734  0022A8  A0D8               	btfss	status,0,c
  2735  0022AA  EF59  F011         	goto	u1661
  2736  0022AE  EF5B  F011         	goto	u1660
  2737  0022B2                     u1661:
  2738  0022B2  EFD2  F010         	goto	l2319
  2739  0022B6                     u1660:
  2740  0022B6                     
  2741                           ;final_control.c: 271:         }
  2742  0022B6  4A3E               	infsnz	matrix_multiply_c1_c1@j^0,f,c
  2743  0022B8  2A3F               	incf	(matrix_multiply_c1_c1@j+1)^0,f,c
  2744  0022BA  BE3F               	btfsc	(matrix_multiply_c1_c1@j+1)^0,7,c
  2745  0022BC  EF68  F011         	goto	u1671
  2746  0022C0  503F               	movf	(matrix_multiply_c1_c1@j+1)^0,w,c
  2747  0022C2  E108               	bnz	u1670
  2748  0022C4  043E               	decf	matrix_multiply_c1_c1@j^0,w,c
  2749  0022C6  A0D8               	btfss	status,0,c
  2750  0022C8  EF68  F011         	goto	u1671
  2751  0022CC  EF6A  F011         	goto	u1670
  2752  0022D0                     u1671:
  2753  0022D0  EFA8  F010         	goto	l2311
  2754  0022D4                     u1670:
  2755  0022D4                     
  2756                           ;final_control.c: 272:     }
  2757  0022D4  4A3A               	infsnz	matrix_multiply_c1_c1@i^0,f,c
  2758  0022D6  2A3B               	incf	(matrix_multiply_c1_c1@i+1)^0,f,c
  2759  0022D8                     l2331:
  2760  0022D8  5045               	movf	_fM1^0,w,c	;volatile
  2761  0022DA  5C3A               	subwf	matrix_multiply_c1_c1@i^0,w,c
  2762  0022DC  503B               	movf	(matrix_multiply_c1_c1@i+1)^0,w,c
  2763  0022DE  0A80               	xorlw	128
  2764  0022E0  6E2C               	movwf	??_matrix_multiply_c1_c1^0,c
  2765  0022E2  5046               	movf	(_fM1+1)^0,w,c	;volatile
  2766  0022E4  0A80               	xorlw	128
  2767  0022E6  582C               	subwfb	??_matrix_multiply_c1_c1^0,w,c
  2768  0022E8  A0D8               	btfss	status,0,c
  2769  0022EA  EF79  F011         	goto	u1681
  2770  0022EE  EF7B  F011         	goto	u1680
  2771  0022F2                     u1681:
  2772  0022F2  EFA4  F010         	goto	l2305
  2773  0022F6                     u1680:
  2774  0022F6  0012               	return		;funcret
  2775  0022F8                     __end_of_matrix_multiply_c1_c1:
  2776                           	callstack 0
  2777                           
  2778 ;; *************** function ___flmul *****************
  2779 ;; Defined at:
  2780 ;;		line 8 in file "C:\Program Files\Microchip\xc8\v2.31\pic\sources\c99\common\sprcmul.c"
  2781 ;; Parameters:    Size  Location     Type
  2782 ;;  b               4    6[COMRAM] void 
  2783 ;;  a               4   10[COMRAM] void 
  2784 ;; Auto vars:     Size  Location     Type
  2785 ;;  prod            4   25[COMRAM] struct .
  2786 ;;  grs             4   19[COMRAM] unsigned long 
  2787 ;;  temp            2   29[COMRAM] struct .
  2788 ;;  bexp            1   24[COMRAM] unsigned char 
  2789 ;;  aexp            1   23[COMRAM] unsigned char 
  2790 ;;  sign            1   18[COMRAM] unsigned char 
  2791 ;; Return value:  Size  Location     Type
  2792 ;;                  4    6[COMRAM] unsigned char 
  2793 ;; Registers used:
  2794 ;;		wreg, status,2, status,0, prodl, prodh
  2795 ;; Tracked objects:
  2796 ;;		On entry : 0/0
  2797 ;;		On exit  : 0/0
  2798 ;;		Unchanged: 0/0
  2799 ;; Data sizes:     COMRAM   BANK0   BANK1   BANK2   BANK3   BANK4   BANK5   BANK6   BANK7   BANK8   BANK9  BANK10  BANK1
      +1  BANK12  BANK13  BANK14  BANK15
  2800 ;;      Params:         8       0       0       0       0       0       0       0       0       0       0       0       
      +0       0       0       0       0
  2801 ;;      Locals:        13       0       0       0       0       0       0       0       0       0       0       0       
      +0       0       0       0       0
  2802 ;;      Temps:          4       0       0       0       0       0       0       0       0       0       0       0       
      +0       0       0       0       0
  2803 ;;      Totals:        25       0       0       0       0       0       0       0       0       0       0       0       
      +0       0       0       0       0
  2804 ;;Total ram usage:       25 bytes
  2805 ;; Hardware stack levels used:    1
  2806 ;; This function calls:
  2807 ;;		Nothing
  2808 ;; This function is called by:
  2809 ;;		_matrix_multiply_c1_c1
  2810 ;;		_matrix_multiply_c4_c1
  2811 ;;		_matrix_multiply_c5_c1
  2812 ;; This function uses a non-reentrant model
  2813 ;;
  2814                           
  2815                           	psect	text8
  2816  001500                     __ptext8:
  2817                           	callstack 0
  2818  001500                     ___flmul:
  2819                           	callstack 28
  2820  001500  500A               	movf	(___flmul@b+3)^0,w,c
  2821  001502  0B80               	andlw	128
  2822  001504  6E13               	movwf	___flmul@sign^0,c
  2823  001506  500A               	movf	(___flmul@b+3)^0,w,c
  2824  001508  240A               	addwf	(___flmul@b+3)^0,w,c
  2825  00150A  6E19               	movwf	___flmul@bexp^0,c
  2826  00150C  AE09               	btfss	(___flmul@b+2)^0,7,c
  2827  00150E  EF8B  F00A         	goto	u1431
  2828  001512  EF8D  F00A         	goto	u1430
  2829  001516                     u1431:
  2830  001516  EF8E  F00A         	goto	l2145
  2831  00151A                     u1430:
  2832  00151A  8019               	bsf	___flmul@bexp^0,0,c
  2833  00151C                     l2145:
  2834  00151C  5019               	movf	___flmul@bexp^0,w,c
  2835  00151E  B4D8               	btfsc	status,2,c
  2836  001520  EF94  F00A         	goto	u1441
  2837  001524  EF96  F00A         	goto	u1440
  2838  001528                     u1441:
  2839  001528  EFA9  F00A         	goto	l2153
  2840  00152C                     u1440:
  2841  00152C  2819               	incf	___flmul@bexp^0,w,c
  2842  00152E  A4D8               	btfss	status,2,c
  2843  001530  EF9C  F00A         	goto	u1451
  2844  001534  EF9E  F00A         	goto	u1450
  2845  001538                     u1451:
  2846  001538  EFA6  F00A         	goto	l2151
  2847  00153C                     u1450:
  2848  00153C  0E00               	movlw	0
  2849  00153E  6E07               	movwf	___flmul@b^0,c
  2850  001540  0E00               	movlw	0
  2851  001542  6E08               	movwf	(___flmul@b+1)^0,c
  2852  001544  0E00               	movlw	0
  2853  001546  6E09               	movwf	(___flmul@b+2)^0,c
  2854  001548  0E00               	movlw	0
  2855  00154A  6E0A               	movwf	(___flmul@b+3)^0,c
  2856  00154C                     l2151:
  2857  00154C  8E09               	bsf	(___flmul@b+2)^0,7,c
  2858  00154E  EFB1  F00A         	goto	l2155
  2859  001552                     l2153:
  2860  001552  0E00               	movlw	0
  2861  001554  6E07               	movwf	___flmul@b^0,c
  2862  001556  0E00               	movlw	0
  2863  001558  6E08               	movwf	(___flmul@b+1)^0,c
  2864  00155A  0E00               	movlw	0
  2865  00155C  6E09               	movwf	(___flmul@b+2)^0,c
  2866  00155E  0E00               	movlw	0
  2867  001560  6E0A               	movwf	(___flmul@b+3)^0,c
  2868  001562                     l2155:
  2869  001562  500E               	movf	(___flmul@a+3)^0,w,c
  2870  001564  0B80               	andlw	128
  2871  001566  1A13               	xorwf	___flmul@sign^0,f,c
  2872  001568  500E               	movf	(___flmul@a+3)^0,w,c
  2873  00156A  240E               	addwf	(___flmul@a+3)^0,w,c
  2874  00156C  6E18               	movwf	___flmul@aexp^0,c
  2875  00156E  AE0D               	btfss	(___flmul@a+2)^0,7,c
  2876  001570  EFBC  F00A         	goto	u1461
  2877  001574  EFBE  F00A         	goto	u1460
  2878  001578                     u1461:
  2879  001578  EFBF  F00A         	goto	l2163
  2880  00157C                     u1460:
  2881  00157C  8018               	bsf	___flmul@aexp^0,0,c
  2882  00157E                     l2163:
  2883  00157E  5018               	movf	___flmul@aexp^0,w,c
  2884  001580  B4D8               	btfsc	status,2,c
  2885  001582  EFC5  F00A         	goto	u1471
  2886  001586  EFC7  F00A         	goto	u1470
  2887  00158A                     u1471:
  2888  00158A  EFDA  F00A         	goto	l2171
  2889  00158E                     u1470:
  2890  00158E  2818               	incf	___flmul@aexp^0,w,c
  2891  001590  A4D8               	btfss	status,2,c
  2892  001592  EFCD  F00A         	goto	u1481
  2893  001596  EFCF  F00A         	goto	u1480
  2894  00159A                     u1481:
  2895  00159A  EFD7  F00A         	goto	l2169
  2896  00159E                     u1480:
  2897  00159E  0E00               	movlw	0
  2898  0015A0  6E0B               	movwf	___flmul@a^0,c
  2899  0015A2  0E00               	movlw	0
  2900  0015A4  6E0C               	movwf	(___flmul@a+1)^0,c
  2901  0015A6  0E00               	movlw	0
  2902  0015A8  6E0D               	movwf	(___flmul@a+2)^0,c
  2903  0015AA  0E00               	movlw	0
  2904  0015AC  6E0E               	movwf	(___flmul@a+3)^0,c
  2905  0015AE                     l2169:
  2906  0015AE  8E0D               	bsf	(___flmul@a+2)^0,7,c
  2907  0015B0  EFE2  F00A         	goto	l850
  2908  0015B4                     l2171:
  2909  0015B4  0E00               	movlw	0
  2910  0015B6  6E0B               	movwf	___flmul@a^0,c
  2911  0015B8  0E00               	movlw	0
  2912  0015BA  6E0C               	movwf	(___flmul@a+1)^0,c
  2913  0015BC  0E00               	movlw	0
  2914  0015BE  6E0D               	movwf	(___flmul@a+2)^0,c
  2915  0015C0  0E00               	movlw	0
  2916  0015C2  6E0E               	movwf	(___flmul@a+3)^0,c
  2917  0015C4                     l850:
  2918  0015C4  5018               	movf	___flmul@aexp^0,w,c
  2919  0015C6  B4D8               	btfsc	status,2,c
  2920  0015C8  EFE8  F00A         	goto	u1491
  2921  0015CC  EFEA  F00A         	goto	u1490
  2922  0015D0                     u1491:
  2923  0015D0  EFF2  F00A         	goto	l2175
  2924  0015D4                     u1490:
  2925  0015D4  5019               	movf	___flmul@bexp^0,w,c
  2926  0015D6  A4D8               	btfss	status,2,c
  2927  0015D8  EFF0  F00A         	goto	u1501
  2928  0015DC  EFF2  F00A         	goto	u1500
  2929  0015E0                     u1501:
  2930  0015E0  EFFC  F00A         	goto	l2179
  2931  0015E4                     u1500:
  2932  0015E4                     l2175:
  2933  0015E4  0E00               	movlw	0
  2934  0015E6  6E07               	movwf	?___flmul^0,c
  2935  0015E8  0E00               	movlw	0
  2936  0015EA  6E08               	movwf	(?___flmul+1)^0,c
  2937  0015EC  0E00               	movlw	0
  2938  0015EE  6E09               	movwf	(?___flmul+2)^0,c
  2939  0015F0  0E00               	movlw	0
  2940  0015F2  6E0A               	movwf	(?___flmul+3)^0,c
  2941  0015F4  EF94  F00C         	goto	l854
  2942  0015F8                     l2179:
  2943  0015F8  500D               	movf	(___flmul@a+2)^0,w,c
  2944  0015FA  0207               	mulwf	___flmul@b^0,c
  2945  0015FC  CFF3 F01E          	movff	prodl,___flmul@temp
  2946  001600  CFF4 F01F          	movff	prodh,___flmul@temp+1
  2947  001604  501E               	movf	___flmul@temp^0,w,c
  2948  001606  6E14               	movwf	___flmul@grs^0,c
  2949  001608  6A15               	clrf	(___flmul@grs+1)^0,c
  2950  00160A  6A16               	clrf	(___flmul@grs+2)^0,c
  2951  00160C  6A17               	clrf	(___flmul@grs+3)^0,c
  2952  00160E  501F               	movf	(___flmul@temp+1)^0,w,c
  2953  001610  6E1A               	movwf	___flmul@prod^0,c
  2954  001612  6A1B               	clrf	(___flmul@prod+1)^0,c
  2955  001614  6A1C               	clrf	(___flmul@prod+2)^0,c
  2956  001616  6A1D               	clrf	(___flmul@prod+3)^0,c
  2957  001618  500C               	movf	(___flmul@a+1)^0,w,c
  2958  00161A  0208               	mulwf	(___flmul@b+1)^0,c
  2959  00161C  CFF3 F01E          	movff	prodl,___flmul@temp
  2960  001620  CFF4 F01F          	movff	prodh,___flmul@temp+1
  2961  001624  501E               	movf	___flmul@temp^0,w,c
  2962  001626  2614               	addwf	___flmul@grs^0,f,c
  2963  001628  0E00               	movlw	0
  2964  00162A  2215               	addwfc	(___flmul@grs+1)^0,f,c
  2965  00162C  2216               	addwfc	(___flmul@grs+2)^0,f,c
  2966  00162E  2217               	addwfc	(___flmul@grs+3)^0,f,c
  2967  001630  501F               	movf	(___flmul@temp+1)^0,w,c
  2968  001632  261A               	addwf	___flmul@prod^0,f,c
  2969  001634  0E00               	movlw	0
  2970  001636  221B               	addwfc	(___flmul@prod+1)^0,f,c
  2971  001638  221C               	addwfc	(___flmul@prod+2)^0,f,c
  2972  00163A  221D               	addwfc	(___flmul@prod+3)^0,f,c
  2973  00163C  500B               	movf	___flmul@a^0,w,c
  2974  00163E  0209               	mulwf	(___flmul@b+2)^0,c
  2975  001640  CFF3 F01E          	movff	prodl,___flmul@temp
  2976  001644  CFF4 F01F          	movff	prodh,___flmul@temp+1
  2977  001648  501E               	movf	___flmul@temp^0,w,c
  2978  00164A  2614               	addwf	___flmul@grs^0,f,c
  2979  00164C  0E00               	movlw	0
  2980  00164E  2215               	addwfc	(___flmul@grs+1)^0,f,c
  2981  001650  2216               	addwfc	(___flmul@grs+2)^0,f,c
  2982  001652  2217               	addwfc	(___flmul@grs+3)^0,f,c
  2983  001654  501F               	movf	(___flmul@temp+1)^0,w,c
  2984  001656  261A               	addwf	___flmul@prod^0,f,c
  2985  001658  0E00               	movlw	0
  2986  00165A  221B               	addwfc	(___flmul@prod+1)^0,f,c
  2987  00165C  221C               	addwfc	(___flmul@prod+2)^0,f,c
  2988  00165E  221D               	addwfc	(___flmul@prod+3)^0,f,c
  2989  001660  C016  F017         	movff	___flmul@grs+2,___flmul@grs+3
  2990  001664  C015  F016         	movff	___flmul@grs+1,___flmul@grs+2
  2991  001668  C014  F015         	movff	___flmul@grs,___flmul@grs+1
  2992  00166C  6A14               	clrf	___flmul@grs^0,c
  2993  00166E  500B               	movf	___flmul@a^0,w,c
  2994  001670  0208               	mulwf	(___flmul@b+1)^0,c
  2995  001672  CFF3 F01E          	movff	prodl,___flmul@temp
  2996  001676  CFF4 F01F          	movff	prodh,___flmul@temp+1
  2997  00167A  501E               	movf	___flmul@temp^0,w,c
  2998  00167C  2614               	addwf	___flmul@grs^0,f,c
  2999  00167E  501F               	movf	(___flmul@temp+1)^0,w,c
  3000  001680  2215               	addwfc	(___flmul@grs+1)^0,f,c
  3001  001682  0E00               	movlw	0
  3002  001684  2216               	addwfc	(___flmul@grs+2)^0,f,c
  3003  001686  0E00               	movlw	0
  3004  001688  2217               	addwfc	(___flmul@grs+3)^0,f,c
  3005  00168A  500C               	movf	(___flmul@a+1)^0,w,c
  3006  00168C  0207               	mulwf	___flmul@b^0,c
  3007  00168E  CFF3 F01E          	movff	prodl,___flmul@temp
  3008  001692  CFF4 F01F          	movff	prodh,___flmul@temp+1
  3009  001696  501E               	movf	___flmul@temp^0,w,c
  3010  001698  2614               	addwf	___flmul@grs^0,f,c
  3011  00169A  501F               	movf	(___flmul@temp+1)^0,w,c
  3012  00169C  2215               	addwfc	(___flmul@grs+1)^0,f,c
  3013  00169E  0E00               	movlw	0
  3014  0016A0  2216               	addwfc	(___flmul@grs+2)^0,f,c
  3015  0016A2  0E00               	movlw	0
  3016  0016A4  2217               	addwfc	(___flmul@grs+3)^0,f,c
  3017  0016A6  C016  F017         	movff	___flmul@grs+2,___flmul@grs+3
  3018  0016AA  C015  F016         	movff	___flmul@grs+1,___flmul@grs+2
  3019  0016AE  C014  F015         	movff	___flmul@grs,___flmul@grs+1
  3020  0016B2  6A14               	clrf	___flmul@grs^0,c
  3021  0016B4  500B               	movf	___flmul@a^0,w,c
  3022  0016B6  0207               	mulwf	___flmul@b^0,c
  3023  0016B8  CFF3 F01E          	movff	prodl,___flmul@temp
  3024  0016BC  CFF4 F01F          	movff	prodh,___flmul@temp+1
  3025  0016C0  501E               	movf	___flmul@temp^0,w,c
  3026  0016C2  2614               	addwf	___flmul@grs^0,f,c
  3027  0016C4  501F               	movf	(___flmul@temp+1)^0,w,c
  3028  0016C6  2215               	addwfc	(___flmul@grs+1)^0,f,c
  3029  0016C8  0E00               	movlw	0
  3030  0016CA  2216               	addwfc	(___flmul@grs+2)^0,f,c
  3031  0016CC  0E00               	movlw	0
  3032  0016CE  2217               	addwfc	(___flmul@grs+3)^0,f,c
  3033  0016D0  500D               	movf	(___flmul@a+2)^0,w,c
  3034  0016D2  0208               	mulwf	(___flmul@b+1)^0,c
  3035  0016D4  CFF3 F01E          	movff	prodl,___flmul@temp
  3036  0016D8  CFF4 F01F          	movff	prodh,___flmul@temp+1
  3037  0016DC  501E               	movf	___flmul@temp^0,w,c
  3038  0016DE  261A               	addwf	___flmul@prod^0,f,c
  3039  0016E0  501F               	movf	(___flmul@temp+1)^0,w,c
  3040  0016E2  221B               	addwfc	(___flmul@prod+1)^0,f,c
  3041  0016E4  0E00               	movlw	0
  3042  0016E6  221C               	addwfc	(___flmul@prod+2)^0,f,c
  3043  0016E8  0E00               	movlw	0
  3044  0016EA  221D               	addwfc	(___flmul@prod+3)^0,f,c
  3045  0016EC  500C               	movf	(___flmul@a+1)^0,w,c
  3046  0016EE  0209               	mulwf	(___flmul@b+2)^0,c
  3047  0016F0  CFF3 F01E          	movff	prodl,___flmul@temp
  3048  0016F4  CFF4 F01F          	movff	prodh,___flmul@temp+1
  3049  0016F8  501E               	movf	___flmul@temp^0,w,c
  3050  0016FA  261A               	addwf	___flmul@prod^0,f,c
  3051  0016FC  501F               	movf	(___flmul@temp+1)^0,w,c
  3052  0016FE  221B               	addwfc	(___flmul@prod+1)^0,f,c
  3053  001700  0E00               	movlw	0
  3054  001702  221C               	addwfc	(___flmul@prod+2)^0,f,c
  3055  001704  0E00               	movlw	0
  3056  001706  221D               	addwfc	(___flmul@prod+3)^0,f,c
  3057  001708  500D               	movf	(___flmul@a+2)^0,w,c
  3058  00170A  0209               	mulwf	(___flmul@b+2)^0,c
  3059  00170C  CFF3 F01E          	movff	prodl,___flmul@temp
  3060  001710  CFF4 F01F          	movff	prodh,___flmul@temp+1
  3061  001714  501E               	movf	___flmul@temp^0,w,c
  3062  001716  6E0F               	movwf	??___flmul^0,c
  3063  001718  501F               	movf	(___flmul@temp+1)^0,w,c
  3064  00171A  6E10               	movwf	(??___flmul+1)^0,c
  3065  00171C  6A11               	clrf	(??___flmul+2)^0,c
  3066  00171E  6A12               	clrf	(??___flmul+3)^0,c
  3067  001720  C011  F012         	movff	??___flmul+2,??___flmul+3
  3068  001724  C010  F011         	movff	??___flmul+1,??___flmul+2
  3069  001728  C00F  F010         	movff	??___flmul,??___flmul+1
  3070  00172C  6A0F               	clrf	??___flmul^0,c
  3071  00172E  500F               	movf	??___flmul^0,w,c
  3072  001730  261A               	addwf	___flmul@prod^0,f,c
  3073  001732  5010               	movf	(??___flmul+1)^0,w,c
  3074  001734  221B               	addwfc	(___flmul@prod+1)^0,f,c
  3075  001736  5011               	movf	(??___flmul+2)^0,w,c
  3076  001738  221C               	addwfc	(___flmul@prod+2)^0,f,c
  3077  00173A  5012               	movf	(??___flmul+3)^0,w,c
  3078  00173C  221D               	addwfc	(___flmul@prod+3)^0,f,c
  3079  00173E  C014  F00F         	movff	___flmul@grs,??___flmul
  3080  001742  C015  F010         	movff	___flmul@grs+1,??___flmul+1
  3081  001746  C016  F011         	movff	___flmul@grs+2,??___flmul+2
  3082  00174A  C017  F012         	movff	___flmul@grs+3,??___flmul+3
  3083  00174E  0E19               	movlw	25
  3084  001750  EFAF  F00B         	goto	u1510
  3085  001754                     u1515:
  3086  001754  90D8               	bcf	status,0,c
  3087  001756  3212               	rrcf	(??___flmul+3)^0,f,c
  3088  001758  3211               	rrcf	(??___flmul+2)^0,f,c
  3089  00175A  3210               	rrcf	(??___flmul+1)^0,f,c
  3090  00175C  320F               	rrcf	??___flmul^0,f,c
  3091  00175E                     u1510:
  3092  00175E  2EE8               	decfsz	wreg,f,c
  3093  001760  EFAA  F00B         	goto	u1515
  3094  001764  500F               	movf	??___flmul^0,w,c
  3095  001766  261A               	addwf	___flmul@prod^0,f,c
  3096  001768  5010               	movf	(??___flmul+1)^0,w,c
  3097  00176A  221B               	addwfc	(___flmul@prod+1)^0,f,c
  3098  00176C  5011               	movf	(??___flmul+2)^0,w,c
  3099  00176E  221C               	addwfc	(___flmul@prod+2)^0,f,c
  3100  001770  5012               	movf	(??___flmul+3)^0,w,c
  3101  001772  221D               	addwfc	(___flmul@prod+3)^0,f,c
  3102  001774  C016  F017         	movff	___flmul@grs+2,___flmul@grs+3
  3103  001778  C015  F016         	movff	___flmul@grs+1,___flmul@grs+2
  3104  00177C  C014  F015         	movff	___flmul@grs,___flmul@grs+1
  3105  001780  6A14               	clrf	___flmul@grs^0,c
  3106  001782  5018               	movf	___flmul@aexp^0,w,c
  3107  001784  C019  F00F         	movff	___flmul@bexp,??___flmul
  3108  001788  6A10               	clrf	(??___flmul+1)^0,c
  3109  00178A  260F               	addwf	??___flmul^0,f,c
  3110  00178C  0E00               	movlw	0
  3111  00178E  2210               	addwfc	(??___flmul+1)^0,f,c
  3112  001790  0E82               	movlw	130
  3113  001792  240F               	addwf	??___flmul^0,w,c
  3114  001794  6E1E               	movwf	___flmul@temp^0,c
  3115  001796  0EFF               	movlw	255
  3116  001798  2010               	addwfc	(??___flmul+1)^0,w,c
  3117  00179A  6E1F               	movwf	(___flmul@temp+1)^0,c
  3118  00179C  EFE5  F00B         	goto	l2227
  3119  0017A0                     l2221:
  3120  0017A0  90D8               	bcf	status,0,c
  3121  0017A2  361A               	rlcf	___flmul@prod^0,f,c
  3122  0017A4  361B               	rlcf	(___flmul@prod+1)^0,f,c
  3123  0017A6  361C               	rlcf	(___flmul@prod+2)^0,f,c
  3124  0017A8  361D               	rlcf	(___flmul@prod+3)^0,f,c
  3125  0017AA  AE17               	btfss	(___flmul@grs+3)^0,7,c
  3126  0017AC  EFDA  F00B         	goto	u1521
  3127  0017B0  EFDC  F00B         	goto	u1520
  3128  0017B4                     u1521:
  3129  0017B4  EFDD  F00B         	goto	l857
  3130  0017B8                     u1520:
  3131  0017B8  801A               	bsf	___flmul@prod^0,0,c
  3132  0017BA                     l857:
  3133  0017BA  90D8               	bcf	status,0,c
  3134  0017BC  3614               	rlcf	___flmul@grs^0,f,c
  3135  0017BE  3615               	rlcf	(___flmul@grs+1)^0,f,c
  3136  0017C0  3616               	rlcf	(___flmul@grs+2)^0,f,c
  3137  0017C2  3617               	rlcf	(___flmul@grs+3)^0,f,c
  3138  0017C4  061E               	decf	___flmul@temp^0,f,c
  3139  0017C6  A0D8               	btfss	status,0,c
  3140  0017C8  061F               	decf	(___flmul@temp+1)^0,f,c
  3141  0017CA                     l2227:
  3142  0017CA  AE1C               	btfss	(___flmul@prod+2)^0,7,c
  3143  0017CC  EFEA  F00B         	goto	u1531
  3144  0017D0  EFEC  F00B         	goto	u1530
  3145  0017D4                     u1531:
  3146  0017D4  EFD0  F00B         	goto	l2221
  3147  0017D8                     u1530:
  3148  0017D8  0E00               	movlw	0
  3149  0017DA  6E18               	movwf	___flmul@aexp^0,c
  3150  0017DC  AE17               	btfss	(___flmul@grs+3)^0,7,c
  3151  0017DE  EFF3  F00B         	goto	u1541
  3152  0017E2  EFF5  F00B         	goto	u1540
  3153  0017E6                     u1541:
  3154  0017E6  EF19  F00C         	goto	l859
  3155  0017EA                     u1540:
  3156  0017EA  0EFF               	movlw	255
  3157  0017EC  1414               	andwf	___flmul@grs^0,w,c
  3158  0017EE  6E0F               	movwf	??___flmul^0,c
  3159  0017F0  0EFF               	movlw	255
  3160  0017F2  1415               	andwf	(___flmul@grs+1)^0,w,c
  3161  0017F4  6E10               	movwf	(??___flmul+1)^0,c
  3162  0017F6  0EFF               	movlw	255
  3163  0017F8  1416               	andwf	(___flmul@grs+2)^0,w,c
  3164  0017FA  6E11               	movwf	(??___flmul+2)^0,c
  3165  0017FC  0E7F               	movlw	127
  3166  0017FE  1417               	andwf	(___flmul@grs+3)^0,w,c
  3167  001800  6E12               	movwf	(??___flmul+3)^0,c
  3168  001802  500F               	movf	??___flmul^0,w,c
  3169  001804  1010               	iorwf	(??___flmul+1)^0,w,c
  3170  001806  1011               	iorwf	(??___flmul+2)^0,w,c
  3171  001808  1012               	iorwf	(??___flmul+3)^0,w,c
  3172  00180A  B4D8               	btfsc	status,2,c
  3173  00180C  EF0A  F00C         	goto	u1551
  3174  001810  EF0C  F00C         	goto	u1550
  3175  001814                     u1551:
  3176  001814  EF10  F00C         	goto	l860
  3177  001818                     u1550:
  3178  001818                     l2235:
  3179  001818  0E01               	movlw	1
  3180  00181A  6E18               	movwf	___flmul@aexp^0,c
  3181  00181C  EF19  F00C         	goto	l859
  3182  001820                     l860:
  3183  001820  A01A               	btfss	___flmul@prod^0,0,c
  3184  001822  EF15  F00C         	goto	u1561
  3185  001826  EF17  F00C         	goto	u1560
  3186  00182A                     u1561:
  3187  00182A  EF19  F00C         	goto	l859
  3188  00182E                     u1560:
  3189  00182E  EF0C  F00C         	goto	l2235
  3190  001832                     l859:
  3191  001832  5018               	movf	___flmul@aexp^0,w,c
  3192  001834  B4D8               	btfsc	status,2,c
  3193  001836  EF1F  F00C         	goto	u1571
  3194  00183A  EF21  F00C         	goto	u1570
  3195  00183E                     u1571:
  3196  00183E  EF45  F00C         	goto	l2247
  3197  001842                     u1570:
  3198  001842  0E01               	movlw	1
  3199  001844  261A               	addwf	___flmul@prod^0,f,c
  3200  001846  0E00               	movlw	0
  3201  001848  221B               	addwfc	(___flmul@prod+1)^0,f,c
  3202  00184A  221C               	addwfc	(___flmul@prod+2)^0,f,c
  3203  00184C  221D               	addwfc	(___flmul@prod+3)^0,f,c
  3204  00184E  A01D               	btfss	(___flmul@prod+3)^0,0,c
  3205  001850  EF2C  F00C         	goto	u1581
  3206  001854  EF2E  F00C         	goto	u1580
  3207  001858                     u1581:
  3208  001858  EF45  F00C         	goto	l2247
  3209  00185C                     u1580:
  3210  00185C  C01A  F00F         	movff	___flmul@prod,??___flmul
  3211  001860  C01B  F010         	movff	___flmul@prod+1,??___flmul+1
  3212  001864  C01C  F011         	movff	___flmul@prod+2,??___flmul+2
  3213  001868  C01D  F012         	movff	___flmul@prod+3,??___flmul+3
  3214  00186C  3412               	rlcf	(??___flmul+3)^0,w,c
  3215  00186E  3212               	rrcf	(??___flmul+3)^0,f,c
  3216  001870  3211               	rrcf	(??___flmul+2)^0,f,c
  3217  001872  3210               	rrcf	(??___flmul+1)^0,f,c
  3218  001874  320F               	rrcf	??___flmul^0,f,c
  3219  001876  C00F  F01A         	movff	??___flmul,___flmul@prod
  3220  00187A  C010  F01B         	movff	??___flmul+1,___flmul@prod+1
  3221  00187E  C011  F01C         	movff	??___flmul+2,___flmul@prod+2
  3222  001882  C012  F01D         	movff	??___flmul+3,___flmul@prod+3
  3223  001886  4A1E               	infsnz	___flmul@temp^0,f,c
  3224  001888  2A1F               	incf	(___flmul@temp+1)^0,f,c
  3225  00188A                     l2247:
  3226  00188A  BE1F               	btfsc	(___flmul@temp+1)^0,7,c
  3227  00188C  EF50  F00C         	goto	u1591
  3228  001890  501F               	movf	(___flmul@temp+1)^0,w,c
  3229  001892  E108               	bnz	u1590
  3230  001894  281E               	incf	___flmul@temp^0,w,c
  3231  001896  A0D8               	btfss	status,0,c
  3232  001898  EF50  F00C         	goto	u1591
  3233  00189C  EF52  F00C         	goto	u1590
  3234  0018A0                     u1591:
  3235  0018A0  EF5C  F00C         	goto	l2251
  3236  0018A4                     u1590:
  3237  0018A4  0E00               	movlw	0
  3238  0018A6  6E1A               	movwf	___flmul@prod^0,c
  3239  0018A8  0E00               	movlw	0
  3240  0018AA  6E1B               	movwf	(___flmul@prod+1)^0,c
  3241  0018AC  0E80               	movlw	128
  3242  0018AE  6E1C               	movwf	(___flmul@prod+2)^0,c
  3243  0018B0  0E7F               	movlw	127
  3244  0018B2  6E1D               	movwf	(___flmul@prod+3)^0,c
  3245  0018B4  EF8A  F00C         	goto	l2263
  3246  0018B8                     l2251:
  3247  0018B8  BE1F               	btfsc	(___flmul@temp+1)^0,7,c
  3248  0018BA  EF69  F00C         	goto	u1600
  3249  0018BE  501F               	movf	(___flmul@temp+1)^0,w,c
  3250  0018C0  E106               	bnz	u1601
  3251  0018C2  041E               	decf	___flmul@temp^0,w,c
  3252  0018C4  B0D8               	btfsc	status,0,c
  3253  0018C6  EF67  F00C         	goto	u1601
  3254  0018CA  EF69  F00C         	goto	u1600
  3255  0018CE                     u1601:
  3256  0018CE  EF75  F00C         	goto	l867
  3257  0018D2                     u1600:
  3258  0018D2  0E00               	movlw	0
  3259  0018D4  6E1A               	movwf	___flmul@prod^0,c
  3260  0018D6  0E00               	movlw	0
  3261  0018D8  6E1B               	movwf	(___flmul@prod+1)^0,c
  3262  0018DA  0E00               	movlw	0
  3263  0018DC  6E1C               	movwf	(___flmul@prod+2)^0,c
  3264  0018DE  0E00               	movlw	0
  3265  0018E0  6E1D               	movwf	(___flmul@prod+3)^0,c
  3266  0018E2  0E00               	movlw	0
  3267  0018E4  6E13               	movwf	___flmul@sign^0,c
  3268  0018E6  EF8A  F00C         	goto	l2263
  3269  0018EA                     l867:
  3270  0018EA  C01E  F019         	movff	___flmul@temp,___flmul@bexp
  3271  0018EE  0EFF               	movlw	255
  3272  0018F0  161A               	andwf	___flmul@prod^0,f,c
  3273  0018F2  0EFF               	movlw	255
  3274  0018F4  161B               	andwf	(___flmul@prod+1)^0,f,c
  3275  0018F6  0E7F               	movlw	127
  3276  0018F8  161C               	andwf	(___flmul@prod+2)^0,f,c
  3277  0018FA  0E00               	movlw	0
  3278  0018FC  161D               	andwf	(___flmul@prod+3)^0,f,c
  3279  0018FE  A019               	btfss	___flmul@bexp^0,0,c
  3280  001900  EF84  F00C         	goto	u1611
  3281  001904  EF86  F00C         	goto	u1610
  3282  001908                     u1611:
  3283  001908  EF87  F00C         	goto	l2261
  3284  00190C                     u1610:
  3285  00190C  8E1C               	bsf	(___flmul@prod+2)^0,7,c
  3286  00190E                     l2261:
  3287  00190E  90D8               	bcf	status,0,c
  3288  001910  3019               	rrcf	___flmul@bexp^0,w,c
  3289  001912  6E1D               	movwf	(___flmul@prod+3)^0,c
  3290  001914                     l2263:
  3291  001914  5013               	movf	___flmul@sign^0,w,c
  3292  001916  121D               	iorwf	(___flmul@prod+3)^0,f,c
  3293  001918  C01A  F007         	movff	___flmul@prod,?___flmul
  3294  00191C  C01B  F008         	movff	___flmul@prod+1,?___flmul+1
  3295  001920  C01C  F009         	movff	___flmul@prod+2,?___flmul+2
  3296  001924  C01D  F00A         	movff	___flmul@prod+3,?___flmul+3
  3297  001928                     l854:
  3298  001928  0012               	return		;funcret
  3299  00192A                     __end_of___flmul:
  3300                           	callstack 0
  3301                           
  3302 ;; *************** function ___asfladd *****************
  3303 ;; Defined at:
  3304 ;;		line 6 in file "C:\Program Files\Microchip\xc8\v2.31\pic\sources\c99\pic18\asfladd.c"
  3305 ;; Parameters:    Size  Location     Type
  3306 ;;  f1p             2   31[COMRAM] PTR 
  3307 ;;		 -> aux_5(16), aux_4(16), aux_3(4), aux_2(16), 
  3308 ;;		 -> aux_1(16), 
  3309 ;;  f2              4   33[COMRAM] PTR 
  3310 ;; Auto vars:     Size  Location     Type
  3311 ;;		None
  3312 ;; Return value:  Size  Location     Type
  3313 ;;                  4   31[COMRAM] PTR 
  3314 ;; Registers used:
  3315 ;;		wreg, fsr2l, fsr2h, status,2, status,0, cstack
  3316 ;; Tracked objects:
  3317 ;;		On entry : 0/0
  3318 ;;		On exit  : 0/0
  3319 ;;		Unchanged: 0/0
  3320 ;; Data sizes:     COMRAM   BANK0   BANK1   BANK2   BANK3   BANK4   BANK5   BANK6   BANK7   BANK8   BANK9  BANK10  BANK1
      +1  BANK12  BANK13  BANK14  BANK15
  3321 ;;      Params:         6       0       0       0       0       0       0       0       0       0       0       0       
      +0       0       0       0       0
  3322 ;;      Locals:         0       0       0       0       0       0       0       0       0       0       0       0       
      +0       0       0       0       0
  3323 ;;      Temps:          0       0       0       0       0       0       0       0       0       0       0       0       
      +0       0       0       0       0
  3324 ;;      Totals:         6       0       0       0       0       0       0       0       0       0       0       0       
      +0       0       0       0       0
  3325 ;;Total ram usage:        6 bytes
  3326 ;; Hardware stack levels used:    1
  3327 ;; Hardware stack levels required when called:    1
  3328 ;; This function calls:
  3329 ;;		___fladd
  3330 ;; This function is called by:
  3331 ;;		_matrix_multiply_c1_c1
  3332 ;;		_matrix_multiply_c4_c1
  3333 ;;		_matrix_multiply_c5_c1
  3334 ;; This function uses a non-reentrant model
  3335 ;;
  3336                           
  3337                           	psect	text9
  3338  002970                     __ptext9:
  3339                           	callstack 0
  3340  002970                     ___asfladd:
  3341                           	callstack 27
  3342  002970                     
  3343                           ;	Return value of ___asfladd is never used
  3344  002970  C020  FFD9         	movff	___asfladd@f1p,fsr2l
  3345  002974  C021  FFDA         	movff	___asfladd@f1p+1,fsr2h
  3346  002978  CFDE F001          	movff	postinc2,___fladd@b
  3347  00297C  CFDE F002          	movff	postinc2,___fladd@b+1
  3348  002980  CFDE F003          	movff	postinc2,___fladd@b+2
  3349  002984  CFDE F004          	movff	postinc2,___fladd@b+3
  3350  002988  C022  F005         	movff	___asfladd@f2,___fladd@a
  3351  00298C  C023  F006         	movff	___asfladd@f2+1,___fladd@a+1
  3352  002990  C024  F007         	movff	___asfladd@f2+2,___fladd@a+2
  3353  002994  C025  F008         	movff	___asfladd@f2+3,___fladd@a+3
  3354  002998  EC20  F008         	call	___fladd	;wreg free
  3355  00299C  C020  FFD9         	movff	___asfladd@f1p,fsr2l
  3356  0029A0  C021  FFDA         	movff	___asfladd@f1p+1,fsr2h
  3357  0029A4  C001  FFDE         	movff	?___fladd,postinc2
  3358  0029A8  C002  FFDE         	movff	?___fladd+1,postinc2
  3359  0029AC  C003  FFDE         	movff	?___fladd+2,postinc2
  3360  0029B0  C004  FFDE         	movff	?___fladd+3,postinc2
  3361  0029B4  0012               	return		;funcret
  3362  0029B6                     __end_of___asfladd:
  3363                           	callstack 0
  3364                           
  3365 ;; *************** function ___fladd *****************
  3366 ;; Defined at:
  3367 ;;		line 10 in file "C:\Program Files\Microchip\xc8\v2.31\pic\sources\c99\common\sprcadd.c"
  3368 ;; Parameters:    Size  Location     Type
  3369 ;;  b               4    0[COMRAM] PTR 
  3370 ;;  a               4    4[COMRAM] PTR 
  3371 ;; Auto vars:     Size  Location     Type
  3372 ;;  grs             1   15[COMRAM] unsigned char 
  3373 ;;  bexp            1   14[COMRAM] unsigned char 
  3374 ;;  aexp            1   13[COMRAM] unsigned char 
  3375 ;;  signs           1   12[COMRAM] unsigned char 
  3376 ;; Return value:  Size  Location     Type
  3377 ;;                  4    0[COMRAM] unsigned char 
  3378 ;; Registers used:
  3379 ;;		wreg, status,2, status,0
  3380 ;; Tracked objects:
  3381 ;;		On entry : 0/0
  3382 ;;		On exit  : 0/0
  3383 ;;		Unchanged: 0/0
  3384 ;; Data sizes:     COMRAM   BANK0   BANK1   BANK2   BANK3   BANK4   BANK5   BANK6   BANK7   BANK8   BANK9  BANK10  BANK1
      +1  BANK12  BANK13  BANK14  BANK15
  3385 ;;      Params:         8       0       0       0       0       0       0       0       0       0       0       0       
      +0       0       0       0       0
  3386 ;;      Locals:         4       0       0       0       0       0       0       0       0       0       0       0       
      +0       0       0       0       0
  3387 ;;      Temps:          4       0       0       0       0       0       0       0       0       0       0       0       
      +0       0       0       0       0
  3388 ;;      Totals:        16       0       0       0       0       0       0       0       0       0       0       0       
      +0       0       0       0       0
  3389 ;;Total ram usage:       16 bytes
  3390 ;; Hardware stack levels used:    1
  3391 ;; This function calls:
  3392 ;;		Nothing
  3393 ;; This function is called by:
  3394 ;;		_matrix_sum_c1
  3395 ;;		___asfladd
  3396 ;;		_plantaPLUSobservadorPLUSperturbacion
  3397 ;; This function uses a non-reentrant model
  3398 ;;
  3399                           
  3400                           	psect	text10
  3401  001040                     __ptext10:
  3402                           	callstack 0
  3403  001040                     ___fladd:
  3404                           	callstack 28
  3405  001040  5004               	movf	(___fladd@b+3)^0,w,c
  3406  001042  0B80               	andlw	128
  3407  001044  6E0D               	movwf	___fladd@signs^0,c
  3408  001046  5004               	movf	(___fladd@b+3)^0,w,c
  3409  001048  2404               	addwf	(___fladd@b+3)^0,w,c
  3410  00104A  6E0F               	movwf	___fladd@bexp^0,c
  3411  00104C  AE03               	btfss	(___fladd@b+2)^0,7,c
  3412  00104E  EF2B  F008         	goto	u1041
  3413  001052  EF2D  F008         	goto	u1040
  3414  001056                     u1041:
  3415  001056  EF2E  F008         	goto	l1933
  3416  00105A                     u1040:
  3417  00105A  800F               	bsf	___fladd@bexp^0,0,c
  3418  00105C                     l1933:
  3419  00105C  500F               	movf	___fladd@bexp^0,w,c
  3420  00105E  B4D8               	btfsc	status,2,c
  3421  001060  EF34  F008         	goto	u1051
  3422  001064  EF36  F008         	goto	u1050
  3423  001068                     u1051:
  3424  001068  EF4B  F008         	goto	l1943
  3425  00106C                     u1050:
  3426  00106C  280F               	incf	___fladd@bexp^0,w,c
  3427  00106E  A4D8               	btfss	status,2,c
  3428  001070  EF3C  F008         	goto	u1061
  3429  001074  EF3E  F008         	goto	u1060
  3430  001078                     u1061:
  3431  001078  EF46  F008         	goto	l1939
  3432  00107C                     u1060:
  3433  00107C  0E00               	movlw	0
  3434  00107E  6E01               	movwf	___fladd@b^0,c
  3435  001080  0E00               	movlw	0
  3436  001082  6E02               	movwf	(___fladd@b+1)^0,c
  3437  001084  0E00               	movlw	0
  3438  001086  6E03               	movwf	(___fladd@b+2)^0,c
  3439  001088  0E00               	movlw	0
  3440  00108A  6E04               	movwf	(___fladd@b+3)^0,c
  3441  00108C                     l1939:
  3442  00108C  8E03               	bsf	(___fladd@b+2)^0,7,c
  3443  00108E  0E00               	movlw	0
  3444  001090  6E04               	movwf	(___fladd@b+3)^0,c
  3445  001092  EF53  F008         	goto	l1945
  3446  001096                     l1943:
  3447  001096  0E00               	movlw	0
  3448  001098  6E01               	movwf	___fladd@b^0,c
  3449  00109A  0E00               	movlw	0
  3450  00109C  6E02               	movwf	(___fladd@b+1)^0,c
  3451  00109E  0E00               	movlw	0
  3452  0010A0  6E03               	movwf	(___fladd@b+2)^0,c
  3453  0010A2  0E00               	movlw	0
  3454  0010A4  6E04               	movwf	(___fladd@b+3)^0,c
  3455  0010A6                     l1945:
  3456  0010A6  5008               	movf	(___fladd@a+3)^0,w,c
  3457  0010A8  0B80               	andlw	128
  3458  0010AA  6E0E               	movwf	___fladd@aexp^0,c
  3459  0010AC  500D               	movf	___fladd@signs^0,w,c
  3460  0010AE  180E               	xorwf	___fladd@aexp^0,w,c
  3461  0010B0  B4D8               	btfsc	status,2,c
  3462  0010B2  EF5D  F008         	goto	u1071
  3463  0010B6  EF5F  F008         	goto	u1070
  3464  0010BA                     u1071:
  3465  0010BA  EF60  F008         	goto	l1951
  3466  0010BE                     u1070:
  3467  0010BE  8C0D               	bsf	___fladd@signs^0,6,c
  3468  0010C0                     l1951:
  3469  0010C0  5008               	movf	(___fladd@a+3)^0,w,c
  3470  0010C2  2408               	addwf	(___fladd@a+3)^0,w,c
  3471  0010C4  6E0E               	movwf	___fladd@aexp^0,c
  3472  0010C6  AE07               	btfss	(___fladd@a+2)^0,7,c
  3473  0010C8  EF68  F008         	goto	u1081
  3474  0010CC  EF6A  F008         	goto	u1080
  3475  0010D0                     u1081:
  3476  0010D0  EF6B  F008         	goto	l1957
  3477  0010D4                     u1080:
  3478  0010D4  800E               	bsf	___fladd@aexp^0,0,c
  3479  0010D6                     l1957:
  3480  0010D6  500E               	movf	___fladd@aexp^0,w,c
  3481  0010D8  B4D8               	btfsc	status,2,c
  3482  0010DA  EF71  F008         	goto	u1091
  3483  0010DE  EF73  F008         	goto	u1090
  3484  0010E2                     u1091:
  3485  0010E2  EF88  F008         	goto	l1967
  3486  0010E6                     u1090:
  3487  0010E6  280E               	incf	___fladd@aexp^0,w,c
  3488  0010E8  A4D8               	btfss	status,2,c
  3489  0010EA  EF79  F008         	goto	u1101
  3490  0010EE  EF7B  F008         	goto	u1100
  3491  0010F2                     u1101:
  3492  0010F2  EF83  F008         	goto	l1963
  3493  0010F6                     u1100:
  3494  0010F6  0E00               	movlw	0
  3495  0010F8  6E05               	movwf	___fladd@a^0,c
  3496  0010FA  0E00               	movlw	0
  3497  0010FC  6E06               	movwf	(___fladd@a+1)^0,c
  3498  0010FE  0E00               	movlw	0
  3499  001100  6E07               	movwf	(___fladd@a+2)^0,c
  3500  001102  0E00               	movlw	0
  3501  001104  6E08               	movwf	(___fladd@a+3)^0,c
  3502  001106                     l1963:
  3503  001106  8E07               	bsf	(___fladd@a+2)^0,7,c
  3504  001108  0E00               	movlw	0
  3505  00110A  6E08               	movwf	(___fladd@a+3)^0,c
  3506  00110C  EF90  F008         	goto	l1969
  3507  001110                     l1967:
  3508  001110  0E00               	movlw	0
  3509  001112  6E05               	movwf	___fladd@a^0,c
  3510  001114  0E00               	movlw	0
  3511  001116  6E06               	movwf	(___fladd@a+1)^0,c
  3512  001118  0E00               	movlw	0
  3513  00111A  6E07               	movwf	(___fladd@a+2)^0,c
  3514  00111C  0E00               	movlw	0
  3515  00111E  6E08               	movwf	(___fladd@a+3)^0,c
  3516  001120                     l1969:
  3517  001120  500F               	movf	___fladd@bexp^0,w,c
  3518  001122  5C0E               	subwf	___fladd@aexp^0,w,c
  3519  001124  B0D8               	btfsc	status,0,c
  3520  001126  EF97  F008         	goto	u1111
  3521  00112A  EF99  F008         	goto	u1110
  3522  00112E                     u1111:
  3523  00112E  EFC0  F008         	goto	l2005
  3524  001132                     u1110:
  3525  001132  AC0D               	btfss	___fladd@signs^0,6,c
  3526  001134  EF9E  F008         	goto	u1121
  3527  001138  EFA0  F008         	goto	u1120
  3528  00113C                     u1121:
  3529  00113C  EFA2  F008         	goto	l1975
  3530  001140                     u1120:
  3531  001140  0E80               	movlw	128
  3532  001142  1A0D               	xorwf	___fladd@signs^0,f,c
  3533  001144                     l1975:
  3534  001144  C00F  F010         	movff	___fladd@bexp,___fladd@grs
  3535  001148  C00E  F00F         	movff	___fladd@aexp,___fladd@bexp
  3536  00114C  C010  F00E         	movff	___fladd@grs,___fladd@aexp
  3537  001150  C001  F010         	movff	___fladd@b,___fladd@grs
  3538  001154  C005  F001         	movff	___fladd@a,___fladd@b
  3539  001158  C010  F005         	movff	___fladd@grs,___fladd@a
  3540  00115C  C002  F010         	movff	___fladd@b+1,___fladd@grs
  3541  001160  C006  F002         	movff	___fladd@a+1,___fladd@b+1
  3542  001164  C010  F006         	movff	___fladd@grs,___fladd@a+1
  3543  001168  C003  F010         	movff	___fladd@b+2,___fladd@grs
  3544  00116C  C007  F003         	movff	___fladd@a+2,___fladd@b+2
  3545  001170  C010  F007         	movff	___fladd@grs,___fladd@a+2
  3546  001174  C004  F010         	movff	___fladd@b+3,___fladd@grs
  3547  001178  C008  F004         	movff	___fladd@a+3,___fladd@b+3
  3548  00117C  C010  F008         	movff	___fladd@grs,___fladd@a+3
  3549  001180                     l2005:
  3550  001180  0E00               	movlw	0
  3551  001182  6E10               	movwf	___fladd@grs^0,c
  3552  001184  500F               	movf	___fladd@bexp^0,w,c
  3553  001186  C00E  F009         	movff	___fladd@aexp,??___fladd
  3554  00118A  6A0A               	clrf	(??___fladd+1)^0,c
  3555  00118C  5E09               	subwf	??___fladd^0,f,c
  3556  00118E  0E00               	movlw	0
  3557  001190  5A0A               	subwfb	(??___fladd+1)^0,f,c
  3558  001192  BE0A               	btfsc	(??___fladd+1)^0,7,c
  3559  001194  EFD5  F008         	goto	u1131
  3560  001198  500A               	movf	(??___fladd+1)^0,w,c
  3561  00119A  E109               	bnz	u1130
  3562  00119C  0E1A               	movlw	26
  3563  00119E  5C09               	subwf	??___fladd^0,w,c
  3564  0011A0  A0D8               	btfss	status,0,c
  3565  0011A2  EFD5  F008         	goto	u1131
  3566  0011A6  EFD7  F008         	goto	u1130
  3567  0011AA                     u1131:
  3568  0011AA  EF0E  F009         	goto	l765
  3569  0011AE                     u1130:
  3570  0011AE  5001               	movf	___fladd@b^0,w,c
  3571  0011B0  1002               	iorwf	(___fladd@b+1)^0,w,c
  3572  0011B2  1003               	iorwf	(___fladd@b+2)^0,w,c
  3573  0011B4  1004               	iorwf	(___fladd@b+3)^0,w,c
  3574  0011B6  A4D8               	btfss	status,2,c
  3575  0011B8  EFE0  F008         	goto	u1141
  3576  0011BC  EFE3  F008         	goto	u1140
  3577  0011C0                     u1141:
  3578  0011C0  0E01               	movlw	1
  3579  0011C2  EFE4  F008         	goto	u1150
  3580  0011C6                     u1140:
  3581  0011C6  0E00               	movlw	0
  3582  0011C8                     u1150:
  3583  0011C8  6E10               	movwf	___fladd@grs^0,c
  3584  0011CA  0E00               	movlw	0
  3585  0011CC  6E01               	movwf	___fladd@b^0,c
  3586  0011CE  0E00               	movlw	0
  3587  0011D0  6E02               	movwf	(___fladd@b+1)^0,c
  3588  0011D2  0E00               	movlw	0
  3589  0011D4  6E03               	movwf	(___fladd@b+2)^0,c
  3590  0011D6  0E00               	movlw	0
  3591  0011D8  6E04               	movwf	(___fladd@b+3)^0,c
  3592  0011DA  C00E  F00F         	movff	___fladd@aexp,___fladd@bexp
  3593  0011DE  EF17  F009         	goto	l764
  3594  0011E2                     l766:
  3595  0011E2  A010               	btfss	___fladd@grs^0,0,c
  3596  0011E4  EFF6  F008         	goto	u1161
  3597  0011E8  EFF8  F008         	goto	u1160
  3598  0011EC                     u1161:
  3599  0011EC  EFFE  F008         	goto	l2017
  3600  0011F0                     u1160:
  3601  0011F0  90D8               	bcf	status,0,c
  3602  0011F2  3010               	rrcf	___fladd@grs^0,w,c
  3603  0011F4  0901               	iorlw	1
  3604  0011F6  6E10               	movwf	___fladd@grs^0,c
  3605  0011F8  EF00  F009         	goto	l2019
  3606  0011FC                     l2017:
  3607  0011FC  90D8               	bcf	status,0,c
  3608  0011FE  3210               	rrcf	___fladd@grs^0,f,c
  3609  001200                     l2019:
  3610  001200  A001               	btfss	___fladd@b^0,0,c
  3611  001202  EF05  F009         	goto	u1171
  3612  001206  EF07  F009         	goto	u1170
  3613  00120A                     u1171:
  3614  00120A  EF08  F009         	goto	l2023
  3615  00120E                     u1170:
  3616  00120E  8E10               	bsf	___fladd@grs^0,7,c
  3617  001210                     l2023:
  3618  001210  3404               	rlcf	(___fladd@b+3)^0,w,c
  3619  001212  3204               	rrcf	(___fladd@b+3)^0,f,c
  3620  001214  3203               	rrcf	(___fladd@b+2)^0,f,c
  3621  001216  3202               	rrcf	(___fladd@b+1)^0,f,c
  3622  001218  3201               	rrcf	___fladd@b^0,f,c
  3623  00121A  2A0F               	incf	___fladd@bexp^0,f,c
  3624  00121C                     l765:
  3625  00121C  500E               	movf	___fladd@aexp^0,w,c
  3626  00121E  5C0F               	subwf	___fladd@bexp^0,w,c
  3627  001220  A0D8               	btfss	status,0,c
  3628  001222  EF15  F009         	goto	u1181
  3629  001226  EF17  F009         	goto	u1180
  3630  00122A                     u1181:
  3631  00122A  EFF1  F008         	goto	l766
  3632  00122E                     u1180:
  3633  00122E                     l764:
  3634  00122E  BC0D               	btfsc	___fladd@signs^0,6,c
  3635  001230  EF1C  F009         	goto	u1191
  3636  001234  EF1E  F009         	goto	u1190
  3637  001238                     u1191:
  3638  001238  EF5E  F009         	goto	l2051
  3639  00123C                     u1190:
  3640  00123C  500F               	movf	___fladd@bexp^0,w,c
  3641  00123E  A4D8               	btfss	status,2,c
  3642  001240  EF24  F009         	goto	u1201
  3643  001244  EF26  F009         	goto	u1200
  3644  001248                     u1201:
  3645  001248  EF30  F009         	goto	l2033
  3646  00124C                     u1200:
  3647  00124C  0E00               	movlw	0
  3648  00124E  6E01               	movwf	?___fladd^0,c
  3649  001250  0E00               	movlw	0
  3650  001252  6E02               	movwf	(?___fladd+1)^0,c
  3651  001254  0E00               	movlw	0
  3652  001256  6E03               	movwf	(?___fladd+2)^0,c
  3653  001258  0E00               	movlw	0
  3654  00125A  6E04               	movwf	(?___fladd+3)^0,c
  3655  00125C  EF7F  F00A         	goto	l773
  3656  001260                     l2033:
  3657  001260  5005               	movf	___fladd@a^0,w,c
  3658  001262  2601               	addwf	___fladd@b^0,f,c
  3659  001264  5006               	movf	(___fladd@a+1)^0,w,c
  3660  001266  2202               	addwfc	(___fladd@b+1)^0,f,c
  3661  001268  5007               	movf	(___fladd@a+2)^0,w,c
  3662  00126A  2203               	addwfc	(___fladd@b+2)^0,f,c
  3663  00126C  5008               	movf	(___fladd@a+3)^0,w,c
  3664  00126E  2204               	addwfc	(___fladd@b+3)^0,f,c
  3665  001270  A004               	btfss	(___fladd@b+3)^0,0,c
  3666  001272  EF3D  F009         	goto	u1211
  3667  001276  EF3F  F009         	goto	u1210
  3668  00127A                     u1211:
  3669  00127A  EFEB  F009         	goto	l2087
  3670  00127E                     u1210:
  3671  00127E  A010               	btfss	___fladd@grs^0,0,c
  3672  001280  EF44  F009         	goto	u1221
  3673  001284  EF46  F009         	goto	u1220
  3674  001288                     u1221:
  3675  001288  EF4C  F009         	goto	l2041
  3676  00128C                     u1220:
  3677  00128C  90D8               	bcf	status,0,c
  3678  00128E  3010               	rrcf	___fladd@grs^0,w,c
  3679  001290  0901               	iorlw	1
  3680  001292  6E10               	movwf	___fladd@grs^0,c
  3681  001294  EF4E  F009         	goto	l2043
  3682  001298                     l2041:
  3683  001298  90D8               	bcf	status,0,c
  3684  00129A  3210               	rrcf	___fladd@grs^0,f,c
  3685  00129C                     l2043:
  3686  00129C  A001               	btfss	___fladd@b^0,0,c
  3687  00129E  EF53  F009         	goto	u1231
  3688  0012A2  EF55  F009         	goto	u1230
  3689  0012A6                     u1231:
  3690  0012A6  EF56  F009         	goto	l2047
  3691  0012AA                     u1230:
  3692  0012AA  8E10               	bsf	___fladd@grs^0,7,c
  3693  0012AC                     l2047:
  3694  0012AC  3404               	rlcf	(___fladd@b+3)^0,w,c
  3695  0012AE  3204               	rrcf	(___fladd@b+3)^0,f,c
  3696  0012B0  3203               	rrcf	(___fladd@b+2)^0,f,c
  3697  0012B2  3202               	rrcf	(___fladd@b+1)^0,f,c
  3698  0012B4  3201               	rrcf	___fladd@b^0,f,c
  3699  0012B6  2A0F               	incf	___fladd@bexp^0,f,c
  3700  0012B8  EFEB  F009         	goto	l2087
  3701  0012BC                     l2051:
  3702  0012BC  5005               	movf	___fladd@a^0,w,c
  3703  0012BE  5C01               	subwf	___fladd@b^0,w,c
  3704  0012C0  5006               	movf	(___fladd@a+1)^0,w,c
  3705  0012C2  5802               	subwfb	(___fladd@b+1)^0,w,c
  3706  0012C4  5007               	movf	(___fladd@a+2)^0,w,c
  3707  0012C6  5803               	subwfb	(___fladd@b+2)^0,w,c
  3708  0012C8  5004               	movf	(___fladd@b+3)^0,w,c
  3709  0012CA  0A80               	xorlw	128
  3710  0012CC  6E09               	movwf	??___fladd^0,c
  3711  0012CE  5008               	movf	(___fladd@a+3)^0,w,c
  3712  0012D0  0A80               	xorlw	128
  3713  0012D2  5809               	subwfb	??___fladd^0,w,c
  3714  0012D4  B0D8               	btfsc	status,0,c
  3715  0012D6  EF6F  F009         	goto	u1241
  3716  0012DA  EF71  F009         	goto	u1240
  3717  0012DE                     u1241:
  3718  0012DE  EF9C  F009         	goto	l2061
  3719  0012E2                     u1240:
  3720  0012E2  5001               	movf	___fladd@b^0,w,c
  3721  0012E4  5C05               	subwf	___fladd@a^0,w,c
  3722  0012E6  6E09               	movwf	??___fladd^0,c
  3723  0012E8  5002               	movf	(___fladd@b+1)^0,w,c
  3724  0012EA  5806               	subwfb	(___fladd@a+1)^0,w,c
  3725  0012EC  6E0A               	movwf	(??___fladd+1)^0,c
  3726  0012EE  5003               	movf	(___fladd@b+2)^0,w,c
  3727  0012F0  5807               	subwfb	(___fladd@a+2)^0,w,c
  3728  0012F2  6E0B               	movwf	(??___fladd+2)^0,c
  3729  0012F4  5004               	movf	(___fladd@b+3)^0,w,c
  3730  0012F6  5808               	subwfb	(___fladd@a+3)^0,w,c
  3731  0012F8  6E0C               	movwf	(??___fladd+3)^0,c
  3732  0012FA  0EFF               	movlw	255
  3733  0012FC  2409               	addwf	??___fladd^0,w,c
  3734  0012FE  6E01               	movwf	___fladd@b^0,c
  3735  001300  0EFF               	movlw	255
  3736  001302  200A               	addwfc	(??___fladd+1)^0,w,c
  3737  001304  6E02               	movwf	(___fladd@b+1)^0,c
  3738  001306  0EFF               	movlw	255
  3739  001308  200B               	addwfc	(??___fladd+2)^0,w,c
  3740  00130A  6E03               	movwf	(___fladd@b+2)^0,c
  3741  00130C  0EFF               	movlw	255
  3742  00130E  200C               	addwfc	(??___fladd+3)^0,w,c
  3743  001310  6E04               	movwf	(___fladd@b+3)^0,c
  3744  001312  0E80               	movlw	128
  3745  001314  1A0D               	xorwf	___fladd@signs^0,f,c
  3746  001316  6C10               	negf	___fladd@grs^0,c
  3747  001318  5010               	movf	___fladd@grs^0,w,c
  3748  00131A  A4D8               	btfss	status,2,c
  3749  00131C  EF92  F009         	goto	u1251
  3750  001320  EF94  F009         	goto	u1250
  3751  001324                     u1251:
  3752  001324  EFA4  F009         	goto	l781
  3753  001328                     u1250:
  3754  001328  0E01               	movlw	1
  3755  00132A  2601               	addwf	___fladd@b^0,f,c
  3756  00132C  0E00               	movlw	0
  3757  00132E  2202               	addwfc	(___fladd@b+1)^0,f,c
  3758  001330  2203               	addwfc	(___fladd@b+2)^0,f,c
  3759  001332  2204               	addwfc	(___fladd@b+3)^0,f,c
  3760  001334  EFA4  F009         	goto	l781
  3761  001338                     l2061:
  3762  001338  5005               	movf	___fladd@a^0,w,c
  3763  00133A  5E01               	subwf	___fladd@b^0,f,c
  3764  00133C  5006               	movf	(___fladd@a+1)^0,w,c
  3765  00133E  5A02               	subwfb	(___fladd@b+1)^0,f,c
  3766  001340  5007               	movf	(___fladd@a+2)^0,w,c
  3767  001342  5A03               	subwfb	(___fladd@b+2)^0,f,c
  3768  001344  5008               	movf	(___fladd@a+3)^0,w,c
  3769  001346  5A04               	subwfb	(___fladd@b+3)^0,f,c
  3770  001348                     l781:
  3771  001348  5001               	movf	___fladd@b^0,w,c
  3772  00134A  1002               	iorwf	(___fladd@b+1)^0,w,c
  3773  00134C  1003               	iorwf	(___fladd@b+2)^0,w,c
  3774  00134E  1004               	iorwf	(___fladd@b+3)^0,w,c
  3775  001350  A4D8               	btfss	status,2,c
  3776  001352  EFAD  F009         	goto	u1261
  3777  001356  EFAF  F009         	goto	u1260
  3778  00135A                     u1261:
  3779  00135A  EFE4  F009         	goto	l2085
  3780  00135E                     u1260:
  3781  00135E  5010               	movf	___fladd@grs^0,w,c
  3782  001360  A4D8               	btfss	status,2,c
  3783  001362  EFB5  F009         	goto	u1271
  3784  001366  EFB7  F009         	goto	u1270
  3785  00136A                     u1271:
  3786  00136A  EFE4  F009         	goto	l2085
  3787  00136E                     u1270:
  3788  00136E  0E00               	movlw	0
  3789  001370  6E01               	movwf	?___fladd^0,c
  3790  001372  0E00               	movlw	0
  3791  001374  6E02               	movwf	(?___fladd+1)^0,c
  3792  001376  0E00               	movlw	0
  3793  001378  6E03               	movwf	(?___fladd+2)^0,c
  3794  00137A  0E00               	movlw	0
  3795  00137C  6E04               	movwf	(?___fladd+3)^0,c
  3796  00137E  EF7F  F00A         	goto	l773
  3797  001382                     l2069:
  3798  001382  90D8               	bcf	status,0,c
  3799  001384  3601               	rlcf	___fladd@b^0,f,c
  3800  001386  3602               	rlcf	(___fladd@b+1)^0,f,c
  3801  001388  3603               	rlcf	(___fladd@b+2)^0,f,c
  3802  00138A  3604               	rlcf	(___fladd@b+3)^0,f,c
  3803  00138C  AE10               	btfss	___fladd@grs^0,7,c
  3804  00138E  EFCB  F009         	goto	u1281
  3805  001392  EFCD  F009         	goto	u1280
  3806  001396                     u1281:
  3807  001396  EFCE  F009         	goto	l2075
  3808  00139A                     u1280:
  3809  00139A  8001               	bsf	___fladd@b^0,0,c
  3810  00139C                     l2075:
  3811  00139C  A010               	btfss	___fladd@grs^0,0,c
  3812  00139E  EFD3  F009         	goto	u1291
  3813  0013A2  EFD5  F009         	goto	u1290
  3814  0013A6                     u1291:
  3815  0013A6  EFD9  F009         	goto	l2079
  3816  0013AA                     u1290:
  3817  0013AA  80D8               	bsf	status,0,c
  3818  0013AC  3610               	rlcf	___fladd@grs^0,f,c
  3819  0013AE  EFDB  F009         	goto	l2081
  3820  0013B2                     l2079:
  3821  0013B2  90D8               	bcf	status,0,c
  3822  0013B4  3610               	rlcf	___fladd@grs^0,f,c
  3823  0013B6                     l2081:
  3824  0013B6  500F               	movf	___fladd@bexp^0,w,c
  3825  0013B8  B4D8               	btfsc	status,2,c
  3826  0013BA  EFE1  F009         	goto	u1301
  3827  0013BE  EFE3  F009         	goto	u1300
  3828  0013C2                     u1301:
  3829  0013C2  EFE4  F009         	goto	l2085
  3830  0013C6                     u1300:
  3831  0013C6  060F               	decf	___fladd@bexp^0,f,c
  3832  0013C8                     l2085:
  3833  0013C8  AE03               	btfss	(___fladd@b+2)^0,7,c
  3834  0013CA  EFE9  F009         	goto	u1311
  3835  0013CE  EFEB  F009         	goto	u1310
  3836  0013D2                     u1311:
  3837  0013D2  EFC1  F009         	goto	l2069
  3838  0013D6                     u1310:
  3839  0013D6                     l2087:
  3840  0013D6  0E00               	movlw	0
  3841  0013D8  6E0E               	movwf	___fladd@aexp^0,c
  3842  0013DA  AE10               	btfss	___fladd@grs^0,7,c
  3843  0013DC  EFF2  F009         	goto	u1321
  3844  0013E0  EFF4  F009         	goto	u1320
  3845  0013E4                     u1321:
  3846  0013E4  EF0C  F00A         	goto	l790
  3847  0013E8                     u1320:
  3848  0013E8  C010  F009         	movff	___fladd@grs,??___fladd
  3849  0013EC  0E7F               	movlw	127
  3850  0013EE  1609               	andwf	??___fladd^0,f,c
  3851  0013F0  B4D8               	btfsc	status,2,c
  3852  0013F2  EFFD  F009         	goto	u1331
  3853  0013F6  EFFF  F009         	goto	u1330
  3854  0013FA                     u1331:
  3855  0013FA  EF03  F00A         	goto	l791
  3856  0013FE                     u1330:
  3857  0013FE                     l2093:
  3858  0013FE  0E01               	movlw	1
  3859  001400  6E0E               	movwf	___fladd@aexp^0,c
  3860  001402  EF0C  F00A         	goto	l790
  3861  001406                     l791:
  3862  001406  A001               	btfss	___fladd@b^0,0,c
  3863  001408  EF08  F00A         	goto	u1341
  3864  00140C  EF0A  F00A         	goto	u1340
  3865  001410                     u1341:
  3866  001410  EF0C  F00A         	goto	l790
  3867  001414                     u1340:
  3868  001414  EFFF  F009         	goto	l2093
  3869  001418                     l790:
  3870  001418  500E               	movf	___fladd@aexp^0,w,c
  3871  00141A  B4D8               	btfsc	status,2,c
  3872  00141C  EF12  F00A         	goto	u1351
  3873  001420  EF14  F00A         	goto	u1350
  3874  001424                     u1351:
  3875  001424  EF3F  F00A         	goto	l2105
  3876  001428                     u1350:
  3877  001428  0E01               	movlw	1
  3878  00142A  2601               	addwf	___fladd@b^0,f,c
  3879  00142C  0E00               	movlw	0
  3880  00142E  2202               	addwfc	(___fladd@b+1)^0,f,c
  3881  001430  2203               	addwfc	(___fladd@b+2)^0,f,c
  3882  001432  2204               	addwfc	(___fladd@b+3)^0,f,c
  3883  001434  A004               	btfss	(___fladd@b+3)^0,0,c
  3884  001436  EF1F  F00A         	goto	u1361
  3885  00143A  EF21  F00A         	goto	u1360
  3886  00143E                     u1361:
  3887  00143E  EF3F  F00A         	goto	l2105
  3888  001442                     u1360:
  3889  001442  C001  F009         	movff	___fladd@b,??___fladd
  3890  001446  C002  F00A         	movff	___fladd@b+1,??___fladd+1
  3891  00144A  C003  F00B         	movff	___fladd@b+2,??___fladd+2
  3892  00144E  C004  F00C         	movff	___fladd@b+3,??___fladd+3
  3893  001452  340C               	rlcf	(??___fladd+3)^0,w,c
  3894  001454  320C               	rrcf	(??___fladd+3)^0,f,c
  3895  001456  320B               	rrcf	(??___fladd+2)^0,f,c
  3896  001458  320A               	rrcf	(??___fladd+1)^0,f,c
  3897  00145A  3209               	rrcf	??___fladd^0,f,c
  3898  00145C  C009  F001         	movff	??___fladd,___fladd@b
  3899  001460  C00A  F002         	movff	??___fladd+1,___fladd@b+1
  3900  001464  C00B  F003         	movff	??___fladd+2,___fladd@b+2
  3901  001468  C00C  F004         	movff	??___fladd+3,___fladd@b+3
  3902  00146C  280F               	incf	___fladd@bexp^0,w,c
  3903  00146E  B4D8               	btfsc	status,2,c
  3904  001470  EF3C  F00A         	goto	u1371
  3905  001474  EF3E  F00A         	goto	u1370
  3906  001478                     u1371:
  3907  001478  EF3F  F00A         	goto	l2105
  3908  00147C                     u1370:
  3909  00147C  2A0F               	incf	___fladd@bexp^0,f,c
  3910  00147E                     l2105:
  3911  00147E  280F               	incf	___fladd@bexp^0,w,c
  3912  001480  B4D8               	btfsc	status,2,c
  3913  001482  EF45  F00A         	goto	u1381
  3914  001486  EF47  F00A         	goto	u1380
  3915  00148A                     u1381:
  3916  00148A  EF4F  F00A         	goto	l2109
  3917  00148E                     u1380:
  3918  00148E  500F               	movf	___fladd@bexp^0,w,c
  3919  001490  A4D8               	btfss	status,2,c
  3920  001492  EF4D  F00A         	goto	u1391
  3921  001496  EF4F  F00A         	goto	u1390
  3922  00149A                     u1391:
  3923  00149A  EF61  F00A         	goto	l2113
  3924  00149E                     u1390:
  3925  00149E                     l2109:
  3926  00149E  0E00               	movlw	0
  3927  0014A0  6E01               	movwf	___fladd@b^0,c
  3928  0014A2  0E00               	movlw	0
  3929  0014A4  6E02               	movwf	(___fladd@b+1)^0,c
  3930  0014A6  0E00               	movlw	0
  3931  0014A8  6E03               	movwf	(___fladd@b+2)^0,c
  3932  0014AA  0E00               	movlw	0
  3933  0014AC  6E04               	movwf	(___fladd@b+3)^0,c
  3934  0014AE  500F               	movf	___fladd@bexp^0,w,c
  3935  0014B0  A4D8               	btfss	status,2,c
  3936  0014B2  EF5D  F00A         	goto	u1401
  3937  0014B6  EF5F  F00A         	goto	u1400
  3938  0014BA                     u1401:
  3939  0014BA  EF61  F00A         	goto	l2113
  3940  0014BE                     u1400:
  3941  0014BE  0E00               	movlw	0
  3942  0014C0  6E0D               	movwf	___fladd@signs^0,c
  3943  0014C2                     l2113:
  3944  0014C2  A00F               	btfss	___fladd@bexp^0,0,c
  3945  0014C4  EF66  F00A         	goto	u1411
  3946  0014C8  EF68  F00A         	goto	u1410
  3947  0014CC                     u1411:
  3948  0014CC  EF6B  F00A         	goto	l2117
  3949  0014D0                     u1410:
  3950  0014D0  8E03               	bsf	(___fladd@b+2)^0,7,c
  3951  0014D2  EF6C  F00A         	goto	l2119
  3952  0014D6                     l2117:
  3953  0014D6  9E03               	bcf	(___fladd@b+2)^0,7,c
  3954  0014D8                     l2119:
  3955  0014D8  90D8               	bcf	status,0,c
  3956  0014DA  300F               	rrcf	___fladd@bexp^0,w,c
  3957  0014DC  6E04               	movwf	(___fladd@b+3)^0,c
  3958  0014DE  AE0D               	btfss	___fladd@signs^0,7,c
  3959  0014E0  EF74  F00A         	goto	u1421
  3960  0014E4  EF76  F00A         	goto	u1420
  3961  0014E8                     u1421:
  3962  0014E8  EF77  F00A         	goto	l2125
  3963  0014EC                     u1420:
  3964  0014EC  8E04               	bsf	(___fladd@b+3)^0,7,c
  3965  0014EE                     l2125:
  3966  0014EE  C001  F001         	movff	___fladd@b,?___fladd
  3967  0014F2  C002  F002         	movff	___fladd@b+1,?___fladd+1
  3968  0014F6  C003  F003         	movff	___fladd@b+2,?___fladd+2
  3969  0014FA  C004  F004         	movff	___fladd@b+3,?___fladd+3
  3970  0014FE                     l773:
  3971  0014FE  0012               	return		;funcret
  3972  001500                     __end_of___fladd:
  3973                           	callstack 0
  3974                           
  3975 ;; *************** function _UART_Write_Text *****************
  3976 ;; Defined at:
  3977 ;;		line 53 in file "./UART.h"
  3978 ;; Parameters:    Size  Location     Type
  3979 ;;  text            2    1[COMRAM] PTR unsigned char 
  3980 ;;		 -> STR_2(40), STR_1(22), 
  3981 ;; Auto vars:     Size  Location     Type
  3982 ;;  i               2    5[COMRAM] int 
  3983 ;; Return value:  Size  Location     Type
  3984 ;;                  1    wreg      void 
  3985 ;; Registers used:
  3986 ;;		wreg, status,2, status,0, tblptrl, tblptrh, tblptru, cstack
  3987 ;; Tracked objects:
  3988 ;;		On entry : 0/0
  3989 ;;		On exit  : 0/0
  3990 ;;		Unchanged: 0/0
  3991 ;; Data sizes:     COMRAM   BANK0   BANK1   BANK2   BANK3   BANK4   BANK5   BANK6   BANK7   BANK8   BANK9  BANK10  BANK1
      +1  BANK12  BANK13  BANK14  BANK15
  3992 ;;      Params:         2       0       0       0       0       0       0       0       0       0       0       0       
      +0       0       0       0       0
  3993 ;;      Locals:         2       0       0       0       0       0       0       0       0       0       0       0       
      +0       0       0       0       0
  3994 ;;      Temps:          2       0       0       0       0       0       0       0       0       0       0       0       
      +0       0       0       0       0
  3995 ;;      Totals:         6       0       0       0       0       0       0       0       0       0       0       0       
      +0       0       0       0       0
  3996 ;;Total ram usage:        6 bytes
  3997 ;; Hardware stack levels used:    1
  3998 ;; Hardware stack levels required when called:    1
  3999 ;; This function calls:
  4000 ;;		_UART_Write
  4001 ;; This function is called by:
  4002 ;;		_main
  4003 ;; This function uses a non-reentrant model
  4004 ;;
  4005                           
  4006                           	psect	text11
  4007  00291A                     __ptext11:
  4008                           	callstack 0
  4009  00291A                     _UART_Write_Text:
  4010                           	callstack 29
  4011  00291A                     
  4012                           ;./UART.h: 53: void UART_Write_Text(char *text);./UART.h: 54: {;./UART.h: 55:   int i;;.
      +                          /UART.h: 56:   for(i=0;text[i]!='\0';i++)
  4013  00291A  0E00               	movlw	0
  4014  00291C  6E07               	movwf	(UART_Write_Text@i+1)^0,c
  4015  00291E  0E00               	movlw	0
  4016  002920  6E06               	movwf	UART_Write_Text@i^0,c
  4017  002922  EFA3  F014         	goto	l2443
  4018  002926                     l2439:
  4019                           
  4020                           ;./UART.h: 57:    UART_Write(text[i]);
  4021  002926  5006               	movf	UART_Write_Text@i^0,w,c
  4022  002928  2402               	addwf	UART_Write_Text@text^0,w,c
  4023  00292A  6E04               	movwf	??_UART_Write_Text^0,c
  4024  00292C  5007               	movf	(UART_Write_Text@i+1)^0,w,c
  4025  00292E  2003               	addwfc	(UART_Write_Text@text+1)^0,w,c
  4026  002930  6E05               	movwf	(??_UART_Write_Text+1)^0,c
  4027  002932  C004  FFF6         	movff	??_UART_Write_Text,tblptrl
  4028  002936  C005  FFF7         	movff	??_UART_Write_Text+1,tblptrh
  4029  00293A                     	if	0	;tblptru may be non-zero
  4030  00293A                     	endif
  4031  00293A                     	if	0	;tblptru may be non-zero
  4032  00293A                     	endif
  4033  00293A  0008               	tblrd		*
  4034  00293C  50F5               	movf	tablat,w,c
  4035  00293E  ECEE  F014         	call	_UART_Write
  4036  002942  4A06               	infsnz	UART_Write_Text@i^0,f,c
  4037  002944  2A07               	incf	(UART_Write_Text@i+1)^0,f,c
  4038  002946                     l2443:
  4039  002946  5006               	movf	UART_Write_Text@i^0,w,c
  4040  002948  2402               	addwf	UART_Write_Text@text^0,w,c
  4041  00294A  6E04               	movwf	??_UART_Write_Text^0,c
  4042  00294C  5007               	movf	(UART_Write_Text@i+1)^0,w,c
  4043  00294E  2003               	addwfc	(UART_Write_Text@text+1)^0,w,c
  4044  002950  6E05               	movwf	(??_UART_Write_Text+1)^0,c
  4045  002952  C004  FFF6         	movff	??_UART_Write_Text,tblptrl
  4046  002956  C005  FFF7         	movff	??_UART_Write_Text+1,tblptrh
  4047  00295A                     	if	0	;tblptru may be non-zero
  4048  00295A                     	endif
  4049  00295A                     	if	0	;tblptru may be non-zero
  4050  00295A                     	endif
  4051  00295A  0008               	tblrd		*
  4052  00295C  50F5               	movf	tablat,w,c
  4053  00295E  0900               	iorlw	0
  4054  002960  A4D8               	btfss	status,2,c
  4055  002962  EFB5  F014         	goto	u1861
  4056  002966  EFB7  F014         	goto	u1860
  4057  00296A                     u1861:
  4058  00296A  EF93  F014         	goto	l2439
  4059  00296E                     u1860:
  4060  00296E  0012               	return		;funcret
  4061  002970                     __end_of_UART_Write_Text:
  4062                           	callstack 0
  4063                           
  4064 ;; *************** function _UART_Write *****************
  4065 ;; Defined at:
  4066 ;;		line 47 in file "./UART.h"
  4067 ;; Parameters:    Size  Location     Type
  4068 ;;  data            1    wreg     unsigned char 
  4069 ;; Auto vars:     Size  Location     Type
  4070 ;;  data            1    0[COMRAM] unsigned char 
  4071 ;; Return value:  Size  Location     Type
  4072 ;;                  1    wreg      void 
  4073 ;; Registers used:
  4074 ;;		wreg
  4075 ;; Tracked objects:
  4076 ;;		On entry : 0/0
  4077 ;;		On exit  : 0/0
  4078 ;;		Unchanged: 0/0
  4079 ;; Data sizes:     COMRAM   BANK0   BANK1   BANK2   BANK3   BANK4   BANK5   BANK6   BANK7   BANK8   BANK9  BANK10  BANK1
      +1  BANK12  BANK13  BANK14  BANK15
  4080 ;;      Params:         0       0       0       0       0       0       0       0       0       0       0       0       
      +0       0       0       0       0
  4081 ;;      Locals:         1       0       0       0       0       0       0       0       0       0       0       0       
      +0       0       0       0       0
  4082 ;;      Temps:          0       0       0       0       0       0       0       0       0       0       0       0       
      +0       0       0       0       0
  4083 ;;      Totals:         1       0       0       0       0       0       0       0       0       0       0       0       
      +0       0       0       0       0
  4084 ;;Total ram usage:        1 bytes
  4085 ;; Hardware stack levels used:    1
  4086 ;; This function calls:
  4087 ;;		Nothing
  4088 ;; This function is called by:
  4089 ;;		_UART_Write_Text
  4090 ;;		_sendDataVisualizer
  4091 ;;		_sendDataVisualizer24bits
  4092 ;; This function uses a non-reentrant model
  4093 ;;
  4094                           
  4095                           	psect	text12
  4096  0029DC                     __ptext12:
  4097                           	callstack 0
  4098  0029DC                     _UART_Write:
  4099                           	callstack 29
  4100                           
  4101                           ;incstack = 0
  4102                           ;UART_Write@data stored from wreg
  4103  0029DC  6E01               	movwf	UART_Write@data^0,c
  4104  0029DE                     l70:
  4105  0029DE  A2AC               	btfss	4012,1,c	;volatile
  4106  0029E0  EFF4  F014         	goto	u1621
  4107  0029E4  EFF6  F014         	goto	u1620
  4108  0029E8                     u1621:
  4109  0029E8  EFEF  F014         	goto	l70
  4110  0029EC                     u1620:
  4111  0029EC                     
  4112                           ;./UART.h: 50:   TXREG = data;
  4113  0029EC  C001  FFAD         	movff	UART_Write@data,4013	;volatile
  4114  0029F0  0012               	return		;funcret
  4115  0029F2                     __end_of_UART_Write:
  4116                           	callstack 0
  4117                           
  4118 ;; *************** function _UART_Init *****************
  4119 ;; Defined at:
  4120 ;;		line 1 in file "./UART.h"
  4121 ;; Parameters:    Size  Location     Type
  4122 ;;  baudrate        4   14[COMRAM] const long 
  4123 ;; Auto vars:     Size  Location     Type
  4124 ;;  x               2   26[COMRAM] unsigned int 
  4125 ;; Return value:  Size  Location     Type
  4126 ;;                  1    wreg      unsigned char 
  4127 ;; Registers used:
  4128 ;;		wreg, status,2, status,0, cstack
  4129 ;; Tracked objects:
  4130 ;;		On entry : 0/0
  4131 ;;		On exit  : 0/0
  4132 ;;		Unchanged: 0/0
  4133 ;; Data sizes:     COMRAM   BANK0   BANK1   BANK2   BANK3   BANK4   BANK5   BANK6   BANK7   BANK8   BANK9  BANK10  BANK1
      +1  BANK12  BANK13  BANK14  BANK15
  4134 ;;      Params:         4       0       0       0       0       0       0       0       0       0       0       0       
      +0       0       0       0       0
  4135 ;;      Locals:         2       0       0       0       0       0       0       0       0       0       0       0       
      +0       0       0       0       0
  4136 ;;      Temps:          8       0       0       0       0       0       0       0       0       0       0       0       
      +0       0       0       0       0
  4137 ;;      Totals:        14       0       0       0       0       0       0       0       0       0       0       0       
      +0       0       0       0       0
  4138 ;;Total ram usage:       14 bytes
  4139 ;; Hardware stack levels used:    1
  4140 ;; Hardware stack levels required when called:    1
  4141 ;; This function calls:
  4142 ;;		___aldiv
  4143 ;; This function is called by:
  4144 ;;		_main
  4145 ;; This function uses a non-reentrant model
  4146 ;;
  4147                           
  4148                           	psect	text13
  4149  00243E                     __ptext13:
  4150                           	callstack 0
  4151  00243E                     _UART_Init:
  4152                           	callstack 29
  4153  00243E                     
  4154                           ;./UART.h: 1: char UART_Init(const long int baudrate);./UART.h: 2: {;./UART.h: 3:  unsig
      +                          ned int x;;./UART.h: 4:  x = (16000000 - baudrate*64)/(baudrate*64);
  4155  00243E  C00F  F013         	movff	UART_Init@baudrate,??_UART_Init
  4156  002442  C010  F014         	movff	UART_Init@baudrate+1,??_UART_Init+1
  4157  002446  C011  F015         	movff	UART_Init@baudrate+2,??_UART_Init+2
  4158  00244A  C012  F016         	movff	UART_Init@baudrate+3,??_UART_Init+3
  4159  00244E  0E06               	movlw	6
  4160  002450                     u1805:
  4161  002450  90D8               	bcf	status,0,c
  4162  002452  3613               	rlcf	??_UART_Init^0,f,c
  4163  002454  3614               	rlcf	(??_UART_Init+1)^0,f,c
  4164  002456  3615               	rlcf	(??_UART_Init+2)^0,f,c
  4165  002458  3616               	rlcf	(??_UART_Init+3)^0,f,c
  4166  00245A  2EE8               	decfsz	wreg,f,c
  4167  00245C  EF28  F012         	goto	u1805
  4168  002460  5013               	movf	??_UART_Init^0,w,c
  4169  002462  0800               	sublw	0
  4170  002464  6E01               	movwf	___aldiv@dividend^0,c
  4171  002466  0E24               	movlw	36
  4172  002468  5414               	subfwb	(??_UART_Init+1)^0,w,c
  4173  00246A  6E02               	movwf	(___aldiv@dividend+1)^0,c
  4174  00246C  0EF4               	movlw	244
  4175  00246E  5415               	subfwb	(??_UART_Init+2)^0,w,c
  4176  002470  6E03               	movwf	(___aldiv@dividend+2)^0,c
  4177  002472  0E00               	movlw	0
  4178  002474  5416               	subfwb	(??_UART_Init+3)^0,w,c
  4179  002476  6E04               	movwf	(___aldiv@dividend+3)^0,c
  4180  002478  C00F  F017         	movff	UART_Init@baudrate,??_UART_Init+4
  4181  00247C  C010  F018         	movff	UART_Init@baudrate+1,??_UART_Init+5
  4182  002480  C011  F019         	movff	UART_Init@baudrate+2,??_UART_Init+6
  4183  002484  C012  F01A         	movff	UART_Init@baudrate+3,??_UART_Init+7
  4184  002488  0E06               	movlw	6
  4185  00248A                     u1815:
  4186  00248A  90D8               	bcf	status,0,c
  4187  00248C  3617               	rlcf	(??_UART_Init+4)^0,f,c
  4188  00248E  3618               	rlcf	(??_UART_Init+5)^0,f,c
  4189  002490  3619               	rlcf	(??_UART_Init+6)^0,f,c
  4190  002492  361A               	rlcf	(??_UART_Init+7)^0,f,c
  4191  002494  2EE8               	decfsz	wreg,f,c
  4192  002496  EF45  F012         	goto	u1815
  4193  00249A  C017  F005         	movff	??_UART_Init+4,___aldiv@divisor
  4194  00249E  C018  F006         	movff	??_UART_Init+5,___aldiv@divisor+1
  4195  0024A2  C019  F007         	movff	??_UART_Init+6,___aldiv@divisor+2
  4196  0024A6  C01A  F008         	movff	??_UART_Init+7,___aldiv@divisor+3
  4197  0024AA  ECB1  F012         	call	___aldiv	;wreg free
  4198  0024AE  C001  F01B         	movff	?___aldiv,UART_Init@x
  4199  0024B2  C002  F01C         	movff	?___aldiv+1,UART_Init@x+1
  4200  0024B6                     
  4201                           ;./UART.h: 5:  if(x>255)
  4202  0024B6  041C               	decf	(UART_Init@x+1)^0,w,c
  4203  0024B8  A0D8               	btfss	status,0,c
  4204  0024BA  EF61  F012         	goto	u1821
  4205  0024BE  EF63  F012         	goto	u1820
  4206  0024C2                     u1821:
  4207  0024C2  EFA0  F012         	goto	l2433
  4208  0024C6                     u1820:
  4209  0024C6                     
  4210                           ;./UART.h: 6:  {;./UART.h: 7:   x = (16000000 - baudrate*16)/(baudrate*16);
  4211  0024C6  C00F  F013         	movff	UART_Init@baudrate,??_UART_Init
  4212  0024CA  C010  F014         	movff	UART_Init@baudrate+1,??_UART_Init+1
  4213  0024CE  C011  F015         	movff	UART_Init@baudrate+2,??_UART_Init+2
  4214  0024D2  C012  F016         	movff	UART_Init@baudrate+3,??_UART_Init+3
  4215  0024D6  0E04               	movlw	4
  4216  0024D8                     u1835:
  4217  0024D8  90D8               	bcf	status,0,c
  4218  0024DA  3613               	rlcf	??_UART_Init^0,f,c
  4219  0024DC  3614               	rlcf	(??_UART_Init+1)^0,f,c
  4220  0024DE  3615               	rlcf	(??_UART_Init+2)^0,f,c
  4221  0024E0  3616               	rlcf	(??_UART_Init+3)^0,f,c
  4222  0024E2  2EE8               	decfsz	wreg,f,c
  4223  0024E4  EF6C  F012         	goto	u1835
  4224  0024E8  5013               	movf	??_UART_Init^0,w,c
  4225  0024EA  0800               	sublw	0
  4226  0024EC  6E01               	movwf	___aldiv@dividend^0,c
  4227  0024EE  0E24               	movlw	36
  4228  0024F0  5414               	subfwb	(??_UART_Init+1)^0,w,c
  4229  0024F2  6E02               	movwf	(___aldiv@dividend+1)^0,c
  4230  0024F4  0EF4               	movlw	244
  4231  0024F6  5415               	subfwb	(??_UART_Init+2)^0,w,c
  4232  0024F8  6E03               	movwf	(___aldiv@dividend+2)^0,c
  4233  0024FA  0E00               	movlw	0
  4234  0024FC  5416               	subfwb	(??_UART_Init+3)^0,w,c
  4235  0024FE  6E04               	movwf	(___aldiv@dividend+3)^0,c
  4236  002500  C00F  F017         	movff	UART_Init@baudrate,??_UART_Init+4
  4237  002504  C010  F018         	movff	UART_Init@baudrate+1,??_UART_Init+5
  4238  002508  C011  F019         	movff	UART_Init@baudrate+2,??_UART_Init+6
  4239  00250C  C012  F01A         	movff	UART_Init@baudrate+3,??_UART_Init+7
  4240  002510  0E04               	movlw	4
  4241  002512                     u1845:
  4242  002512  90D8               	bcf	status,0,c
  4243  002514  3617               	rlcf	(??_UART_Init+4)^0,f,c
  4244  002516  3618               	rlcf	(??_UART_Init+5)^0,f,c
  4245  002518  3619               	rlcf	(??_UART_Init+6)^0,f,c
  4246  00251A  361A               	rlcf	(??_UART_Init+7)^0,f,c
  4247  00251C  2EE8               	decfsz	wreg,f,c
  4248  00251E  EF89  F012         	goto	u1845
  4249  002522  C017  F005         	movff	??_UART_Init+4,___aldiv@divisor
  4250  002526  C018  F006         	movff	??_UART_Init+5,___aldiv@divisor+1
  4251  00252A  C019  F007         	movff	??_UART_Init+6,___aldiv@divisor+2
  4252  00252E  C01A  F008         	movff	??_UART_Init+7,___aldiv@divisor+3
  4253  002532  ECB1  F012         	call	___aldiv	;wreg free
  4254  002536  C001  F01B         	movff	?___aldiv,UART_Init@x
  4255  00253A  C002  F01C         	movff	?___aldiv+1,UART_Init@x+1
  4256  00253E                     
  4257                           ;./UART.h: 8:   BRGH = 1;
  4258  00253E  84AC               	bsf	4012,2,c	;volatile
  4259  002540                     l2433:
  4260                           
  4261                           ;./UART.h: 10:  if(x<256)
  4262  002540  041C               	decf	(UART_Init@x+1)^0,w,c
  4263  002542  B0D8               	btfsc	status,0,c
  4264  002544  EFA6  F012         	goto	u1851
  4265  002548  EFA8  F012         	goto	u1850
  4266  00254C                     u1851:
  4267  00254C  EFB0  F012         	goto	l49
  4268  002550                     u1850:
  4269  002550                     
  4270                           ;./UART.h: 11:  {;./UART.h: 12:    SPBRG = x;
  4271  002550  C01B  FFAF         	movff	UART_Init@x,4015	;volatile
  4272                           
  4273                           ;./UART.h: 13:    SYNC = 0;
  4274  002554  98AC               	bcf	4012,4,c	;volatile
  4275                           
  4276                           ;./UART.h: 14:    SPEN = 1;
  4277  002556  8EAB               	bsf	4011,7,c	;volatile
  4278                           
  4279                           ;./UART.h: 15:           TRISC7 = 1;
  4280  002558  8E94               	bsf	3988,7,c	;volatile
  4281                           
  4282                           ;./UART.h: 16:           TRISC6 = 1;
  4283  00255A  8C94               	bsf	3988,6,c	;volatile
  4284                           
  4285                           ;./UART.h: 17:           CREN = 1;
  4286  00255C  88AB               	bsf	4011,4,c	;volatile
  4287                           
  4288                           ;./UART.h: 18:           TXEN = 1;
  4289  00255E  8AAC               	bsf	4012,5,c	;volatile
  4290  002560                     l49:
  4291  002560  0012               	return		;funcret
  4292  002562                     __end_of_UART_Init:
  4293                           	callstack 0
  4294                           
  4295 ;; *************** function ___aldiv *****************
  4296 ;; Defined at:
  4297 ;;		line 7 in file "C:\Program Files\Microchip\xc8\v2.31\pic\sources\c99\common\aldiv.c"
  4298 ;; Parameters:    Size  Location     Type
  4299 ;;  dividend        4    0[COMRAM] long 
  4300 ;;  divisor         4    4[COMRAM] long 
  4301 ;; Auto vars:     Size  Location     Type
  4302 ;;  quotient        4   10[COMRAM] long 
  4303 ;;  sign            1    9[COMRAM] unsigned char 
  4304 ;;  counter         1    8[COMRAM] unsigned char 
  4305 ;; Return value:  Size  Location     Type
  4306 ;;                  4    0[COMRAM] long 
  4307 ;; Registers used:
  4308 ;;		wreg, status,2, status,0
  4309 ;; Tracked objects:
  4310 ;;		On entry : 0/0
  4311 ;;		On exit  : 0/0
  4312 ;;		Unchanged: 0/0
  4313 ;; Data sizes:     COMRAM   BANK0   BANK1   BANK2   BANK3   BANK4   BANK5   BANK6   BANK7   BANK8   BANK9  BANK10  BANK1
      +1  BANK12  BANK13  BANK14  BANK15
  4314 ;;      Params:         8       0       0       0       0       0       0       0       0       0       0       0       
      +0       0       0       0       0
  4315 ;;      Locals:         6       0       0       0       0       0       0       0       0       0       0       0       
      +0       0       0       0       0
  4316 ;;      Temps:          0       0       0       0       0       0       0       0       0       0       0       0       
      +0       0       0       0       0
  4317 ;;      Totals:        14       0       0       0       0       0       0       0       0       0       0       0       
      +0       0       0       0       0
  4318 ;;Total ram usage:       14 bytes
  4319 ;; Hardware stack levels used:    1
  4320 ;; This function calls:
  4321 ;;		Nothing
  4322 ;; This function is called by:
  4323 ;;		_UART_Init
  4324 ;; This function uses a non-reentrant model
  4325 ;;
  4326                           
  4327                           	psect	text14
  4328  002562                     __ptext14:
  4329                           	callstack 0
  4330  002562                     ___aldiv:
  4331                           	callstack 29
  4332  002562  0E00               	movlw	0
  4333  002564  6E0A               	movwf	___aldiv@sign^0,c
  4334  002566  BE08               	btfsc	(___aldiv@divisor+3)^0,7,c
  4335  002568  EFBA  F012         	goto	u1740
  4336  00256C  EFB8  F012         	goto	u1741
  4337  002570                     u1741:
  4338  002570  EFC4  F012         	goto	l2389
  4339  002574                     u1740:
  4340  002574  1E08               	comf	(___aldiv@divisor+3)^0,f,c
  4341  002576  1E07               	comf	(___aldiv@divisor+2)^0,f,c
  4342  002578  1E06               	comf	(___aldiv@divisor+1)^0,f,c
  4343  00257A  6C05               	negf	___aldiv@divisor^0,c
  4344  00257C  0E00               	movlw	0
  4345  00257E  2206               	addwfc	(___aldiv@divisor+1)^0,f,c
  4346  002580  2207               	addwfc	(___aldiv@divisor+2)^0,f,c
  4347  002582  2208               	addwfc	(___aldiv@divisor+3)^0,f,c
  4348  002584  0E01               	movlw	1
  4349  002586  6E0A               	movwf	___aldiv@sign^0,c
  4350  002588                     l2389:
  4351  002588  BE04               	btfsc	(___aldiv@dividend+3)^0,7,c
  4352  00258A  EFCB  F012         	goto	u1750
  4353  00258E  EFC9  F012         	goto	u1751
  4354  002592                     u1751:
  4355  002592  EFD5  F012         	goto	l2395
  4356  002596                     u1750:
  4357  002596  1E04               	comf	(___aldiv@dividend+3)^0,f,c
  4358  002598  1E03               	comf	(___aldiv@dividend+2)^0,f,c
  4359  00259A  1E02               	comf	(___aldiv@dividend+1)^0,f,c
  4360  00259C  6C01               	negf	___aldiv@dividend^0,c
  4361  00259E  0E00               	movlw	0
  4362  0025A0  2202               	addwfc	(___aldiv@dividend+1)^0,f,c
  4363  0025A2  2203               	addwfc	(___aldiv@dividend+2)^0,f,c
  4364  0025A4  2204               	addwfc	(___aldiv@dividend+3)^0,f,c
  4365  0025A6  0E01               	movlw	1
  4366  0025A8  1A0A               	xorwf	___aldiv@sign^0,f,c
  4367  0025AA                     l2395:
  4368  0025AA  0E00               	movlw	0
  4369  0025AC  6E0B               	movwf	___aldiv@quotient^0,c
  4370  0025AE  0E00               	movlw	0
  4371  0025B0  6E0C               	movwf	(___aldiv@quotient+1)^0,c
  4372  0025B2  0E00               	movlw	0
  4373  0025B4  6E0D               	movwf	(___aldiv@quotient+2)^0,c
  4374  0025B6  0E00               	movlw	0
  4375  0025B8  6E0E               	movwf	(___aldiv@quotient+3)^0,c
  4376  0025BA  5005               	movf	___aldiv@divisor^0,w,c
  4377  0025BC  1006               	iorwf	(___aldiv@divisor+1)^0,w,c
  4378  0025BE  1007               	iorwf	(___aldiv@divisor+2)^0,w,c
  4379  0025C0  1008               	iorwf	(___aldiv@divisor+3)^0,w,c
  4380  0025C2  B4D8               	btfsc	status,2,c
  4381  0025C4  EFE6  F012         	goto	u1761
  4382  0025C8  EFE8  F012         	goto	u1760
  4383  0025CC                     u1761:
  4384  0025CC  EF1E  F013         	goto	l2417
  4385  0025D0                     u1760:
  4386  0025D0  0E01               	movlw	1
  4387  0025D2  6E09               	movwf	___aldiv@counter^0,c
  4388  0025D4  EFF2  F012         	goto	l2403
  4389  0025D8                     l2401:
  4390  0025D8  90D8               	bcf	status,0,c
  4391  0025DA  3605               	rlcf	___aldiv@divisor^0,f,c
  4392  0025DC  3606               	rlcf	(___aldiv@divisor+1)^0,f,c
  4393  0025DE  3607               	rlcf	(___aldiv@divisor+2)^0,f,c
  4394  0025E0  3608               	rlcf	(___aldiv@divisor+3)^0,f,c
  4395  0025E2  2A09               	incf	___aldiv@counter^0,f,c
  4396  0025E4                     l2403:
  4397  0025E4  AE08               	btfss	(___aldiv@divisor+3)^0,7,c
  4398  0025E6  EFF7  F012         	goto	u1771
  4399  0025EA  EFF9  F012         	goto	u1770
  4400  0025EE                     u1771:
  4401  0025EE  EFEC  F012         	goto	l2401
  4402  0025F2                     u1770:
  4403  0025F2                     l2405:
  4404  0025F2  90D8               	bcf	status,0,c
  4405  0025F4  360B               	rlcf	___aldiv@quotient^0,f,c
  4406  0025F6  360C               	rlcf	(___aldiv@quotient+1)^0,f,c
  4407  0025F8  360D               	rlcf	(___aldiv@quotient+2)^0,f,c
  4408  0025FA  360E               	rlcf	(___aldiv@quotient+3)^0,f,c
  4409  0025FC  5005               	movf	___aldiv@divisor^0,w,c
  4410  0025FE  5C01               	subwf	___aldiv@dividend^0,w,c
  4411  002600  5006               	movf	(___aldiv@divisor+1)^0,w,c
  4412  002602  5802               	subwfb	(___aldiv@dividend+1)^0,w,c
  4413  002604  5007               	movf	(___aldiv@divisor+2)^0,w,c
  4414  002606  5803               	subwfb	(___aldiv@dividend+2)^0,w,c
  4415  002608  5008               	movf	(___aldiv@divisor+3)^0,w,c
  4416  00260A  5804               	subwfb	(___aldiv@dividend+3)^0,w,c
  4417  00260C  A0D8               	btfss	status,0,c
  4418  00260E  EF0B  F013         	goto	u1781
  4419  002612  EF0D  F013         	goto	u1780
  4420  002616                     u1781:
  4421  002616  EF16  F013         	goto	l2413
  4422  00261A                     u1780:
  4423  00261A  5005               	movf	___aldiv@divisor^0,w,c
  4424  00261C  5E01               	subwf	___aldiv@dividend^0,f,c
  4425  00261E  5006               	movf	(___aldiv@divisor+1)^0,w,c
  4426  002620  5A02               	subwfb	(___aldiv@dividend+1)^0,f,c
  4427  002622  5007               	movf	(___aldiv@divisor+2)^0,w,c
  4428  002624  5A03               	subwfb	(___aldiv@dividend+2)^0,f,c
  4429  002626  5008               	movf	(___aldiv@divisor+3)^0,w,c
  4430  002628  5A04               	subwfb	(___aldiv@dividend+3)^0,f,c
  4431  00262A  800B               	bsf	___aldiv@quotient^0,0,c
  4432  00262C                     l2413:
  4433  00262C  90D8               	bcf	status,0,c
  4434  00262E  3208               	rrcf	(___aldiv@divisor+3)^0,f,c
  4435  002630  3207               	rrcf	(___aldiv@divisor+2)^0,f,c
  4436  002632  3206               	rrcf	(___aldiv@divisor+1)^0,f,c
  4437  002634  3205               	rrcf	___aldiv@divisor^0,f,c
  4438  002636  2E09               	decfsz	___aldiv@counter^0,f,c
  4439  002638  EFF9  F012         	goto	l2405
  4440  00263C                     l2417:
  4441  00263C  500A               	movf	___aldiv@sign^0,w,c
  4442  00263E  B4D8               	btfsc	status,2,c
  4443  002640  EF24  F013         	goto	u1791
  4444  002644  EF26  F013         	goto	u1790
  4445  002648                     u1791:
  4446  002648  EF2E  F013         	goto	l2421
  4447  00264C                     u1790:
  4448  00264C  1E0E               	comf	(___aldiv@quotient+3)^0,f,c
  4449  00264E  1E0D               	comf	(___aldiv@quotient+2)^0,f,c
  4450  002650  1E0C               	comf	(___aldiv@quotient+1)^0,f,c
  4451  002652  6C0B               	negf	___aldiv@quotient^0,c
  4452  002654  0E00               	movlw	0
  4453  002656  220C               	addwfc	(___aldiv@quotient+1)^0,f,c
  4454  002658  220D               	addwfc	(___aldiv@quotient+2)^0,f,c
  4455  00265A  220E               	addwfc	(___aldiv@quotient+3)^0,f,c
  4456  00265C                     l2421:
  4457  00265C  C00B  F001         	movff	___aldiv@quotient,?___aldiv
  4458  002660  C00C  F002         	movff	___aldiv@quotient+1,?___aldiv+1
  4459  002664  C00D  F003         	movff	___aldiv@quotient+2,?___aldiv+2
  4460  002668  C00E  F004         	movff	___aldiv@quotient+3,?___aldiv+3
  4461  00266C  0012               	return		;funcret
  4462  00266E                     __end_of___aldiv:
  4463                           	callstack 0
  4464                           
  4465 ;; *************** function _PORT_configurar *****************
  4466 ;; Defined at:
  4467 ;;		line 252 in file "final_control.c"
  4468 ;; Parameters:    Size  Location     Type
  4469 ;;		None
  4470 ;; Auto vars:     Size  Location     Type
  4471 ;;		None
  4472 ;; Return value:  Size  Location     Type
  4473 ;;                  1    wreg      void 
  4474 ;; Registers used:
  4475 ;;		None
  4476 ;; Tracked objects:
  4477 ;;		On entry : 0/0
  4478 ;;		On exit  : 0/0
  4479 ;;		Unchanged: 0/0
  4480 ;; Data sizes:     COMRAM   BANK0   BANK1   BANK2   BANK3   BANK4   BANK5   BANK6   BANK7   BANK8   BANK9  BANK10  BANK1
      +1  BANK12  BANK13  BANK14  BANK15
  4481 ;;      Params:         0       0       0       0       0       0       0       0       0       0       0       0       
      +0       0       0       0       0
  4482 ;;      Locals:         0       0       0       0       0       0       0       0       0       0       0       0       
      +0       0       0       0       0
  4483 ;;      Temps:          0       0       0       0       0       0       0       0       0       0       0       0       
      +0       0       0       0       0
  4484 ;;      Totals:         0       0       0       0       0       0       0       0       0       0       0       0       
      +0       0       0       0       0
  4485 ;;Total ram usage:        0 bytes
  4486 ;; Hardware stack levels used:    1
  4487 ;; This function calls:
  4488 ;;		Nothing
  4489 ;; This function is called by:
  4490 ;;		_main
  4491 ;; This function uses a non-reentrant model
  4492 ;;
  4493                           
  4494                           	psect	text15
  4495  0029FA                     __ptext15:
  4496                           	callstack 0
  4497  0029FA                     _PORT_configurar:
  4498                           	callstack 30
  4499  0029FA                     
  4500                           ;final_control.c: 253:     TRISCbits.RC7 = 1;
  4501  0029FA  8E94               	bsf	148,7,c	;volatile
  4502                           
  4503                           ;final_control.c: 254:     TRISCbits.RC6 = 0;
  4504  0029FC  9C94               	bcf	148,6,c	;volatile
  4505  0029FE  0012               	return		;funcret
  4506  002A00                     __end_of_PORT_configurar:
  4507                           	callstack 0
  4508                           
  4509 ;; *************** function _INTERRUPT_configurar *****************
  4510 ;; Defined at:
  4511 ;;		line 256 in file "final_control.c"
  4512 ;; Parameters:    Size  Location     Type
  4513 ;;		None
  4514 ;; Auto vars:     Size  Location     Type
  4515 ;;		None
  4516 ;; Return value:  Size  Location     Type
  4517 ;;                  1    wreg      void 
  4518 ;; Registers used:
  4519 ;;		None
  4520 ;; Tracked objects:
  4521 ;;		On entry : 0/0
  4522 ;;		On exit  : 0/0
  4523 ;;		Unchanged: 0/0
  4524 ;; Data sizes:     COMRAM   BANK0   BANK1   BANK2   BANK3   BANK4   BANK5   BANK6   BANK7   BANK8   BANK9  BANK10  BANK1
      +1  BANK12  BANK13  BANK14  BANK15
  4525 ;;      Params:         0       0       0       0       0       0       0       0       0       0       0       0       
      +0       0       0       0       0
  4526 ;;      Locals:         0       0       0       0       0       0       0       0       0       0       0       0       
      +0       0       0       0       0
  4527 ;;      Temps:          0       0       0       0       0       0       0       0       0       0       0       0       
      +0       0       0       0       0
  4528 ;;      Totals:         0       0       0       0       0       0       0       0       0       0       0       0       
      +0       0       0       0       0
  4529 ;;Total ram usage:        0 bytes
  4530 ;; Hardware stack levels used:    1
  4531 ;; This function calls:
  4532 ;;		Nothing
  4533 ;; This function is called by:
  4534 ;;		_main
  4535 ;; This function uses a non-reentrant model
  4536 ;;
  4537                           
  4538                           	psect	text16
  4539  002A00                     __ptext16:
  4540                           	callstack 0
  4541  002A00                     _INTERRUPT_configurar:
  4542                           	callstack 30
  4543  002A00                     
  4544                           ;final_control.c: 257:     INTCONbits.GIE = 0;
  4545  002A00  9EF2               	bcf	242,7,c	;volatile
  4546                           
  4547                           ;final_control.c: 258:     INTCONbits.PEIE = 0;
  4548  002A02  9CF2               	bcf	242,6,c	;volatile
  4549  002A04  0012               	return		;funcret
  4550  002A06                     __end_of_INTERRUPT_configurar:
  4551                           	callstack 0
  4552                           
  4553                           	psect	rparam
  4554  0000                     
  4555                           	psect	idloc
  4556                           
  4557                           ;Config register IDLOC0 @ 0x200000
  4558                           ;	unspecified, using default values
  4559  200000                     	org	2097152
  4560  200000  FF                 	db	255
  4561                           
  4562                           ;Config register IDLOC1 @ 0x200001
  4563                           ;	unspecified, using default values
  4564  200001                     	org	2097153
  4565  200001  FF                 	db	255
  4566                           
  4567                           ;Config register IDLOC2 @ 0x200002
  4568                           ;	unspecified, using default values
  4569  200002                     	org	2097154
  4570  200002  FF                 	db	255
  4571                           
  4572                           ;Config register IDLOC3 @ 0x200003
  4573                           ;	unspecified, using default values
  4574  200003                     	org	2097155
  4575  200003  FF                 	db	255
  4576                           
  4577                           ;Config register IDLOC4 @ 0x200004
  4578                           ;	unspecified, using default values
  4579  200004                     	org	2097156
  4580  200004  FF                 	db	255
  4581                           
  4582                           ;Config register IDLOC5 @ 0x200005
  4583                           ;	unspecified, using default values
  4584  200005                     	org	2097157
  4585  200005  FF                 	db	255
  4586                           
  4587                           ;Config register IDLOC6 @ 0x200006
  4588                           ;	unspecified, using default values
  4589  200006                     	org	2097158
  4590  200006  FF                 	db	255
  4591                           
  4592                           ;Config register IDLOC7 @ 0x200007
  4593                           ;	unspecified, using default values
  4594  200007                     	org	2097159
  4595  200007  FF                 	db	255
  4596                           
  4597                           	psect	config
  4598                           
  4599                           ; Padding undefined space
  4600  300000                     	org	3145728
  4601  300000  FF                 	db	255
  4602                           
  4603                           ;Config register CONFIG1H @ 0x300001
  4604                           ;	Oscillator Selection bits
  4605                           ;	OSC = HS, HS oscillator
  4606                           ;	Fail-Safe Clock Monitor Enable bit
  4607                           ;	FCMEN = OFF, Fail-Safe Clock Monitor disabled
  4608                           ;	Internal/External Oscillator Switchover bit
  4609                           ;	IESO = OFF, Oscillator Switchover mode disabled
  4610  300001                     	org	3145729
  4611  300001  02                 	db	2
  4612                           
  4613                           ;Config register CONFIG2L @ 0x300002
  4614                           ;	Power-up Timer Enable bit
  4615                           ;	PWRT = OFF, PWRT disabled
  4616                           ;	Brown-out Reset Enable bits
  4617                           ;	BOREN = SBORDIS, Brown-out Reset enabled in hardware only (SBOREN is disabled)
  4618                           ;	Brown Out Reset Voltage bits
  4619                           ;	BORV = 3, Minimum setting
  4620  300002                     	org	3145730
  4621  300002  1F                 	db	31
  4622                           
  4623                           ;Config register CONFIG2H @ 0x300003
  4624                           ;	Watchdog Timer Enable bit
  4625                           ;	WDT = OFF, WDT disabled (control is placed on the SWDTEN bit)
  4626                           ;	Watchdog Timer Postscale Select bits
  4627                           ;	WDTPS = 32768, 1:32768
  4628  300003                     	org	3145731
  4629  300003  1E                 	db	30
  4630                           
  4631                           ; Padding undefined space
  4632  300004                     	org	3145732
  4633  300004  FF                 	db	255
  4634                           
  4635                           ;Config register CONFIG3H @ 0x300005
  4636                           ;	CCP2 MUX bit
  4637                           ;	CCP2MX = PORTC, CCP2 input/output is multiplexed with RC1
  4638                           ;	PORTB A/D Enable bit
  4639                           ;	PBADEN = OFF, PORTB<4:0> pins are configured as digital I/O on Reset
  4640                           ;	Low-Power Timer1 Oscillator Enable bit
  4641                           ;	LPT1OSC = OFF, Timer1 configured for higher power operation
  4642                           ;	MCLR Pin Enable bit
  4643                           ;	MCLRE = ON, MCLR pin enabled; RE3 input pin disabled
  4644  300005                     	org	3145733
  4645  300005  81                 	db	129
  4646                           
  4647                           ;Config register CONFIG4L @ 0x300006
  4648                           ;	Stack Full/Underflow Reset Enable bit
  4649                           ;	STVREN = OFF, Stack full/underflow will not cause Reset
  4650                           ;	Single-Supply ICSP Enable bit
  4651                           ;	LVP = ON, Single-Supply ICSP enabled
  4652                           ;	Extended Instruction Set Enable bit
  4653                           ;	XINST = OFF, Instruction set extension and Indexed Addressing mode disabled (Legacy mo
      +                          de)
  4654                           ;	Background Debugger Enable bit
  4655                           ;	DEBUG = 0x1, unprogrammed default
  4656  300006                     	org	3145734
  4657  300006  84                 	db	132
  4658                           
  4659                           ; Padding undefined space
  4660  300007                     	org	3145735
  4661  300007  FF                 	db	255
  4662                           
  4663                           ;Config register CONFIG5L @ 0x300008
  4664                           ;	Code Protection bit
  4665                           ;	CP0 = OFF, Block 0 (000800-003FFFh) not code-protected
  4666                           ;	Code Protection bit
  4667                           ;	CP1 = OFF, Block 1 (004000-007FFFh) not code-protected
  4668                           ;	Code Protection bit
  4669                           ;	CP2 = OFF, Block 2 (008000-00BFFFh) not code-protected
  4670                           ;	Code Protection bit
  4671                           ;	CP3 = OFF, Block 3 (00C000-00FFFFh) not code-protected
  4672  300008                     	org	3145736
  4673  300008  0F                 	db	15
  4674                           
  4675                           ;Config register CONFIG5H @ 0x300009
  4676                           ;	Boot Block Code Protection bit
  4677                           ;	CPB = OFF, Boot block (000000-0007FFh) not code-protected
  4678                           ;	Data EEPROM Code Protection bit
  4679                           ;	CPD = OFF, Data EEPROM not code-protected
  4680  300009                     	org	3145737
  4681  300009  C0                 	db	192
  4682                           
  4683                           ;Config register CONFIG6L @ 0x30000A
  4684                           ;	Write Protection bit
  4685                           ;	WRT0 = OFF, Block 0 (000800-003FFFh) not write-protected
  4686                           ;	Write Protection bit
  4687                           ;	WRT1 = OFF, Block 1 (004000-007FFFh) not write-protected
  4688                           ;	Write Protection bit
  4689                           ;	WRT2 = OFF, Block 2 (008000-00BFFFh) not write-protected
  4690                           ;	Write Protection bit
  4691                           ;	WRT3 = OFF, Block 3 (00C000-00FFFFh) not write-protected
  4692  30000A                     	org	3145738
  4693  30000A  0F                 	db	15
  4694                           
  4695                           ;Config register CONFIG6H @ 0x30000B
  4696                           ;	Configuration Register Write Protection bit
  4697                           ;	WRTC = OFF, Configuration registers (300000-3000FFh) not write-protected
  4698                           ;	Boot Block Write Protection bit
  4699                           ;	WRTB = OFF, Boot Block (000000-0007FFh) not write-protected
  4700                           ;	Data EEPROM Write Protection bit
  4701                           ;	WRTD = OFF, Data EEPROM not write-protected
  4702  30000B                     	org	3145739
  4703  30000B  E0                 	db	224
  4704                           
  4705                           ;Config register CONFIG7L @ 0x30000C
  4706                           ;	Table Read Protection bit
  4707                           ;	EBTR0 = OFF, Block 0 (000800-003FFFh) not protected from table reads executed in other
      +                           blocks
  4708                           ;	Table Read Protection bit
  4709                           ;	EBTR1 = OFF, Block 1 (004000-007FFFh) not protected from table reads executed in other
      +                           blocks
  4710                           ;	Table Read Protection bit
  4711                           ;	EBTR2 = OFF, Block 2 (008000-00BFFFh) not protected from table reads executed in other
      +                           blocks
  4712                           ;	Table Read Protection bit
  4713                           ;	EBTR3 = OFF, Block 3 (00C000-00FFFFh) not protected from table reads executed in other
      +                           blocks
  4714  30000C                     	org	3145740
  4715  30000C  0F                 	db	15
  4716                           
  4717                           ;Config register CONFIG7H @ 0x30000D
  4718                           ;	Boot Block Table Read Protection bit
  4719                           ;	EBTRB = OFF, Boot Block (000000-0007FFh) not protected from table reads executed in ot
      +                          her blocks
  4720  30000D                     	org	3145741
  4721  30000D  40                 	db	64
  4722                           tosu	equ	0xFFF
  4723                           tosh	equ	0xFFE
  4724                           tosl	equ	0xFFD
  4725                           stkptr	equ	0xFFC
  4726                           pclatu	equ	0xFFB
  4727                           pclath	equ	0xFFA
  4728                           pcl	equ	0xFF9
  4729                           tblptru	equ	0xFF8
  4730                           tblptrh	equ	0xFF7
  4731                           tblptrl	equ	0xFF6
  4732                           tablat	equ	0xFF5
  4733                           prodh	equ	0xFF4
  4734                           prodl	equ	0xFF3
  4735                           indf0	equ	0xFEF
  4736                           postinc0	equ	0xFEE
  4737                           postdec0	equ	0xFED
  4738                           preinc0	equ	0xFEC
  4739                           plusw0	equ	0xFEB
  4740                           fsr0h	equ	0xFEA
  4741                           fsr0l	equ	0xFE9
  4742                           wreg	equ	0xFE8
  4743                           indf1	equ	0xFE7
  4744                           postinc1	equ	0xFE6
  4745                           postdec1	equ	0xFE5
  4746                           preinc1	equ	0xFE4
  4747                           plusw1	equ	0xFE3
  4748                           fsr1h	equ	0xFE2
  4749                           fsr1l	equ	0xFE1
  4750                           bsr	equ	0xFE0
  4751                           indf2	equ	0xFDF
  4752                           postinc2	equ	0xFDE
  4753                           postdec2	equ	0xFDD
  4754                           preinc2	equ	0xFDC
  4755                           plusw2	equ	0xFDB
  4756                           fsr2h	equ	0xFDA
  4757                           fsr2l	equ	0xFD9
  4758                           status	equ	0xFD8

Data Sizes:
    Strings     62
    Constant    0
    Data        396
    BSS         284
    Persistent  0
    Stack       0

Auto Spaces:
    Space          Size  Autos    Used
    COMRAM          127     66     126
    BANK0           128      0     124
    BANK1           256      0     208
    BANK2           256      0     208
    BANK3           256      0      80
    BANK4           256      0       0
    BANK5           256      0       0
    BANK6           256      0       0
    BANK7           256      0       0
    BANK8           256      0       0
    BANK9           256      0       0
    BANK10          256      0       0
    BANK11          256      0       0
    BANK12          256      0       0
    BANK13          256      0       0
    BANK14          256      0       0
    BANK15          128      0       0

Pointer List with Targets:

    __asfladd@f1p	PTR  size(2) Largest target is 16
		 -> aux_5(BANK1[16]), aux_4(BANK0[16]), aux_3(COMRAM[4]), aux_2(BANK0[16]), 
		 -> aux_1(BANK0[16]), 

    sendDataVisualizer@ptrObs	PTR unsigned char  size(2) Largest target is 16
		 -> Yo(BANK0[16]), 

    sendDataVisualizer@ptrPlanta	PTR unsigned char  size(2) Largest target is 16
		 -> Y(COMRAM[16]), 

    matrix_sum_c1@M2	PTR volatile [1] size(2) Largest target is 16
		 -> aux_5(BANK1[16]), aux_3(COMRAM[4]), aux_2(BANK0[16]), 

    matrix_sum_c1@M1	PTR volatile [1] size(2) Largest target is 16
		 -> aux_4(BANK0[16]), ref_by_Nbard(BANK0[4]), aux_1(BANK0[16]), 

    matrix_sum_c1@res	PTR volatile [1] size(2) Largest target is 16
		 -> Xo_1(BANK0[16]), X_1(BANK0[16]), U(COMRAM[4]), 

    matrix_multiply_c5_c1@M2	PTR volatile [1] size(2) Largest target is 20
		 -> inputObs(BANK0[20]), 

    matrix_multiply_c5_c1@M1	PTR volatile [5] size(2) Largest target is 80
		 -> Bo(BANK2[80]), 

    matrix_multiply_c5_c1@res	PTR volatile [1] size(2) Largest target is 16
		 -> aux_5(BANK1[16]), 

    matrix_multiply_c4_c1@M2	PTR volatile [1] size(2) Largest target is 16
		 -> Yo(BANK0[16]), Xo_0(COMRAM[16]), Y(COMRAM[16]), X_0(COMRAM[16]), 

    matrix_multiply_c4_c1@M1	PTR volatile [4] size(2) Largest target is 64
		 -> Ao(BANK1[64]), nKd(BANK1[16]), A(BANK1[64]), 

    matrix_multiply_c4_c1@res	PTR volatile [1] size(2) Largest target is 16
		 -> aux_4(BANK0[16]), aux_3(COMRAM[4]), aux_1(BANK0[16]), 

    matrix_multiply_c1_c1@M2	PTR volatile [1] size(2) Largest target is 4
		 -> U(COMRAM[4]), 

    matrix_multiply_c1_c1@M1	PTR volatile [1] size(2) Largest target is 16
		 -> B(BANK1[16]), 

    matrix_multiply_c1_c1@res	PTR volatile [1] size(2) Largest target is 16
		 -> aux_2(BANK0[16]), 

    UART_Write_Text@text	PTR unsigned char  size(2) Largest target is 40
		 -> STR_2(CODE[40]), STR_1(CODE[22]), 


Critical Paths under _main in COMRAM

    _sendDataVisualizer->_UART_Write
    _plantaPLUSobservador->_matrix_multiply_c1_c1
    _plantaPLUSobservador->_matrix_multiply_c4_c1
    _matrix_sum_c1->___fladd
    _matrix_multiply_c5_c1->___asfladd
    _matrix_multiply_c4_c1->___asfladd
    _matrix_multiply_c1_c1->___asfladd
    ___flmul->___wmul
    ___asfladd->___flmul
    _UART_Write_Text->_UART_Write
    _UART_Init->___aldiv

Critical Paths under _main in BANK0

    None.

Critical Paths under _main in BANK1

    None.

Critical Paths under _main in BANK2

    None.

Critical Paths under _main in BANK3

    None.

Critical Paths under _main in BANK4

    None.

Critical Paths under _main in BANK5

    None.

Critical Paths under _main in BANK6

    None.

Critical Paths under _main in BANK7

    None.

Critical Paths under _main in BANK8

    None.

Critical Paths under _main in BANK9

    None.

Critical Paths under _main in BANK10

    None.

Critical Paths under _main in BANK11

    None.

Critical Paths under _main in BANK12

    None.

Critical Paths under _main in BANK13

    None.

Critical Paths under _main in BANK14

    None.

Critical Paths under _main in BANK15

    None.

Call Graph Tables:

 ---------------------------------------------------------------------------------
 (Depth) Function   	        Calls       Base Space   Used Autos Params    Refs
 ---------------------------------------------------------------------------------
 (0) _main                                                 3     3      0   25009
                                             63 COMRAM     3     3      0
               _INTERRUPT_configurar
                    _PORT_configurar
                          _UART_Init
                    _UART_Write_Text
               _plantaPLUSobservador
                 _sendDataVisualizer
 ---------------------------------------------------------------------------------
 (1) _sendDataVisualizer                                  20    20      0     582
                                              1 COMRAM    20    20      0
                         _UART_Write
 ---------------------------------------------------------------------------------
 (1) _plantaPLUSobservador                                 0     0      0   23304
              _matrix_multiply_c1_c1
              _matrix_multiply_c4_c1
              _matrix_multiply_c5_c1
                      _matrix_sum_c1
 ---------------------------------------------------------------------------------
 (2) _matrix_sum_c1                                       22    16      6    4606
                                             16 COMRAM    22    16      6
                            ___fladd
 ---------------------------------------------------------------------------------
 (2) _matrix_multiply_c5_c1                               24    18      6    5908
                                             37 COMRAM    24    18      6
                          ___asfladd
                            ___flmul
                             ___wmul
 ---------------------------------------------------------------------------------
 (3) ___wmul                                               6     2      4     311
                                              0 COMRAM     6     2      4
 ---------------------------------------------------------------------------------
 (2) _matrix_multiply_c4_c1                               26    20      6    6965
                                             37 COMRAM    26    20      6
                          ___asfladd
                            ___flmul
 ---------------------------------------------------------------------------------
 (2) _matrix_multiply_c1_c1                               26    20      6    5825
                                             37 COMRAM    26    20      6
                          ___asfladd
                            ___flmul
 ---------------------------------------------------------------------------------
 (3) ___flmul                                             25    17      8    1886
                                              6 COMRAM    25    17      8
                             ___wmul (ARG)
 ---------------------------------------------------------------------------------
 (3) ___asfladd                                            6     0      6    2872
                                             31 COMRAM     6     0      6
                            ___fladd
                            ___flmul (ARG)
                             ___wmul (ARG)
 ---------------------------------------------------------------------------------
 (3) ___fladd                                             16     8      8    2512
                                              0 COMRAM    16     8      8
 ---------------------------------------------------------------------------------
 (1) _UART_Write_Text                                      6     4      2     264
                                              1 COMRAM     6     4      2
                         _UART_Write
 ---------------------------------------------------------------------------------
 (2) _UART_Write                                           1     1      0      22
                                              0 COMRAM     1     1      0
 ---------------------------------------------------------------------------------
 (1) _UART_Init                                           14    10      4     836
                                             14 COMRAM    14    10      4
                            ___aldiv
 ---------------------------------------------------------------------------------
 (2) ___aldiv                                             14     6      8     604
                                              0 COMRAM    14     6      8
 ---------------------------------------------------------------------------------
 (1) _PORT_configurar                                      0     0      0       0
 ---------------------------------------------------------------------------------
 (1) _INTERRUPT_configurar                                 0     0      0       0
 ---------------------------------------------------------------------------------
 Estimated maximum stack depth 3
 ---------------------------------------------------------------------------------

 Call Graph Graphs:

 _main (ROOT)
   _INTERRUPT_configurar
   _PORT_configurar
   _UART_Init
     ___aldiv
   _UART_Write_Text
     _UART_Write
   _plantaPLUSobservador
     _matrix_multiply_c1_c1
       ___asfladd
         ___fladd
         ___flmul (ARG)
           ___wmul (ARG)
         ___wmul (ARG)
       ___flmul
         ___wmul (ARG)
     _matrix_multiply_c4_c1
       ___asfladd
         ___fladd
         ___flmul (ARG)
           ___wmul (ARG)
         ___wmul (ARG)
       ___flmul
         ___wmul (ARG)
     _matrix_multiply_c5_c1
       ___asfladd
         ___fladd
         ___flmul (ARG)
           ___wmul (ARG)
         ___wmul (ARG)
       ___flmul
         ___wmul (ARG)
       ___wmul
     _matrix_sum_c1
       ___fladd
   _sendDataVisualizer
     _UART_Write

 Address spaces:
Name               Size   Autos  Total    Cost      Usage
BIGRAM             F7F      0       0      37        0.0%
EEDATA             400      0       0       0        0.0%
BITBANK14          100      0       0      32        0.0%
BANK14             100      0       0      33        0.0%
BITBANK13          100      0       0      30        0.0%
BANK13             100      0       0      31        0.0%
BITBANK12          100      0       0      28        0.0%
BANK12             100      0       0      29        0.0%
BITBANK11          100      0       0      26        0.0%
BANK11             100      0       0      27        0.0%
BITBANK10          100      0       0      24        0.0%
BANK10             100      0       0      25        0.0%
BITBANK9           100      0       0      22        0.0%
BANK9              100      0       0      23        0.0%
BITBANK8           100      0       0      20        0.0%
BANK8              100      0       0      21        0.0%
BITBANK7           100      0       0      18        0.0%
BANK7              100      0       0      19        0.0%
BITBANK6           100      0       0      16        0.0%
BANK6              100      0       0      17        0.0%
BITBANK5           100      0       0      14        0.0%
BANK5              100      0       0      15        0.0%
BITBANK4           100      0       0      12        0.0%
BANK4              100      0       0      13        0.0%
BITBANK3           100      0       0      10        0.0%
BANK3              100      0      50      11       31.2%
BITBANK2           100      0       0       8        0.0%
BANK2              100      0      D0       9       81.2%
BITBANK1           100      0       0       6        0.0%
BANK1              100      0      D0       7       81.2%
BITBANK15           80      0       0      35        0.0%
BANK15              80      0       0      36        0.0%
BITBANK0            80      0       0       4        0.0%
BANK0               80      0      7C       5       96.9%
BITCOMRAM           7F      0       0       0        0.0%
COMRAM              7F     42      7E       1       99.2%
BITSFR               0      0       0     200        0.0%
SFR                  0      0       0     200        0.0%
STACK                0      0       0       2        0.0%
NULL                 0      0       0       0        0.0%
ABS                  0      0     2EA      34        0.0%
DATA                 0      0     2EA       3        0.0%
CODE                 0      0       0       0        0.0%


Microchip Technology PIC18 Macro Assembler V2.31 build 20201012212115 
Symbol Table                                                                                   Wed Jul 07 19:17:22 2021

                             _A 0150                               _B 01A0                               _C 0240  
                             _D 01B0                               _U 007B                               _Y 0057  
                            l70 29DE                              l49 2560                              l73 29F0  
                            l79 296E                              _Ao 0110                              _Bo 0280  
                            _Co 0200                              _Do 0300                              _Kd 0100  
                            _Yo 00C4             ___wmul@multiplicand 0003                             l141 2916  
                           l214 1D88                             l154 29FE                             l315 266C  
                           l147 1B9A                             l236 29DA                             l157 2A04  
                           l167 22F6                             l177 1F5C                             l187 212A  
                           l195 243C                             l377 29B4           ?_plantaPLUSobservador 0001  
                           l850 15C4                             l764 122E                             l860 1820  
                           l781 1348                             l773 14FE                             l765 121C  
                           l790 1418                             l766 11E2                             l854 1928  
                           l791 1406                             l857 17BA                             l867 18EA  
                           l859 1832                             _X_0 0067                             _X_1 00E4  
                           _fM1 0045                             _nKd 0190             sendDataVisualizer@x 0002  
                           wreg 000FE8                    ___flmul@aexp 0018                    ___flmul@bexp 0019  
                  ___flmul@sign 0013                    ___flmul@temp 001E                    ___flmul@prod 001A  
                matrix_sum_c1@i 0023                  matrix_sum_c1@j 0025                            l2001 1178  
                          l2011 11CA                            l2003 117C                            l2101 1442  
                          l2021 120E                            l2013 11DA                            l2005 1180  
                          l2111 14BE                            l2103 147C                            l2023 1210  
                          l2015 11F0                            l2007 1184                            l2121 14DE  
                          l2113 14C2                            l2105 147E                            l2041 1298  
                          l2033 1260                            l2025 121A                            l2017 11FC  
                          l2009 11AE                            l2201 1696                            l2123 14EC  
                          l2115 14D0                            l2107 148E                            l2043 129C  
                          l2035 1270                            l2027 123C                            l2051 12BC  
                          l2019 1200                            l2211 16F8                            l2203 16A6  
                          l2131 29D2                            l2125 14EE                            l2117 14D6  
                          l2109 149E                            l2053 12E2                            l2061 1338  
                          l2045 12AA                            l2037 127E                            l2029 124C  
                          l2221 17A0                            l2213 1714                            l2205 16C0  
                          l2141 150C                            l2301 1F3E                            l2119 14D8  
                          l2071 138C                            l2063 135E                            l2055 1316  
                          l2047 12AC                            l2039 128C                            l2135 2970  
                          l2231 17DC                            l2223 17AA                            l2215 173E  
                          l2207 16D0                            l2151 154C                            l2143 151A  
                          l2311 2150                            l2303 212C                            l1433 29FA  
                          l2401 25D8                            l2081 13B6                            l2073 139A  
                          l2065 136E                            l2057 1318                            l2049 12B6  
                          l2241 184E                            l2233 17EA                            l2225 17B8  
                          l2217 1774                            l2209 16EC                            l2161 157C  
                          l2153 1552                            l2145 151C                            l2321 2298  
                          l2313 219C                            l2305 2148                            l2129 29B6  
                          l1435 2A00                            l2411 262A                            l2403 25E4  
                          l2091 13E8                            l2083 13C6                            l2075 139C  
                          l2059 1328                            l2251 18B8                            l2243 185C  
                          l2235 1818                            l2227 17CA                            l2219 1782  
                          l2171 15B4                            l2163 157E                            l2155 1562  
                          l2147 152C                            l2139 1500                            l2323 229C  
                          l2331 22D8                            l2421 265C                            l2413 262C  
                          l2405 25F2                            l2093 13FE                            l2077 13AA  
                          l2069 1382                            l2085 13C8                            l2261 190E  
                          l2253 18D2                            l2245 1886                            l2229 17D8  
                          l2181 1604                            l2173 15D4                            l2165 158E  
                          l2157 1568                            l2149 153C                            l2325 22B6  
                          l2341 2314                            l2333 22F8                            l2501 1B12  
                          l2415 2636                            l2407 25FC                            l2431 253E  
                          l2271 29EC                            l2079 13B2                            l2087 13D6  
                          l2255 18EE                            l2263 1914                            l2239 1842  
                          l2247 188A                            l2191 1654                            l2183 160E  
                          l2175 15E4                            l2167 159E                            l2159 156E  
                          l2327 22BA                            l2319 21A4                            l2351 1F5E  
                          l2343 23FC                            l2335 230C                            l2511 1B5A  
                          l2503 1B22                            l2409 261A                            l2417 263C  
                          l2433 2540                            l2425 243E                            l2441 2942  
                          l2097 1428                            l2089 13DA                            l2265 1918  
                          l2257 18FE                            l2249 18A4                            l2193 1660  
                          l2185 1624                            l2169 15AE                            l2329 22D4  
                          l2281 1DAE                            l2273 1D8A                            l2361 1FCE  
                          l2353 1F7A                            l2345 2400                            l2513 1B7E  
                          l2505 1B32                            l2419 264C                            l2435 2550  
                          l2427 24B6                            l2443 2946                            l2099 1434  
                          l2259 190C                            l2195 166E                            l2187 1630  
                          l2179 15F8                            l2291 1EFC                            l2283 1DFA  
                          l2275 1DA6                            l2371 20CE                            l2347 241A  
                          l2507 1B42                            l2451 1972                            l2611 1D0A  
                          l2603 1CDE                            l2531 1BD0                            l2515 1B9C  
                          l2381 2562                            l2429 24C6                            l2269 29DE  
                          l2437 291A                            l2197 167A                            l2189 1648  
                          l2293 1F00                            l2373 20EA                            l2349 241E  
                          l2509 1B52                            l2461 19C6                            l2453 197A  
                          l2445 192A                            l2621 1D28                            l2613 1D12  
                          l2605 1CEC                            l2541 1BF6                            l2533 1BE6  
                          l2525 1BBA                            l2517 1BAC                            l2391 2596  
                          l2383 2566                            l2439 2926                            l2199 168A  
                          l2295 1F1C                            l2375 20EE                            l2367 1FD6  
                          l2359 1F82                            l2471 1A16                            l2463 19D6  
                          l2455 1996                            l2447 1932                            l2623 1D2C  
                          l2607 1CF0                            l2551 1C2A                            l2543 1C04  
                          l2535 1BEE                            l2527 1BC8                            l2519 1BB2  
                          l2393 25A6                            l2385 2574                            l2297 1F20  
                          l2289 1E02                            l2377 2108                            l2369 20CA  
                          l2481 1A66                            l2473 1A26                            l2465 19E6  
                          l2457 19A6                            l2449 194E                            l2641 1D6C  
                          l2625 1D30                            l2609 1CF4                            l2561 1C44  
                          l2545 1C08                            l2529 1BCC                            l2395 25AA  
                          l2387 2584                            l1931 105A                            l2299 1F3A  
                          l2379 210C                            l2491 1AB6                            l2483 1A6E  
                          l2475 1A36                            l2467 19F6                            l2459 19B6  
                          l2643 1D82                            l2635 1D56                            l2627 1D46  
                          l2619 1D1A                            l2563 1C48                            l2547 1C0C  
                          l2651 28CC                            l2397 25BA                            l2389 2588  
                          l1941 108E                            l1933 105C                            l2493 1AD2  
                          l2485 1A8A                            l2477 1A46                            l2469 1A06  
                          l2637 1D64                            l2629 1D4E                            l2581 1C9A  
                          l2573 1C6E                            l2565 1C5E                            l2557 1C32  
                          l2549 1C22                            l2661 28F4                            l2653 28D8  
                          l2645 28AC                            l2399 25D0                            l1951 10C0  
                          l1935 106C                            l1943 1096                            l1927 1040  
                          l2495 1AE2                            l2487 1A92                            l2479 1A56  
                          l2639 1D68                            l2591 1CB4                            l2575 1C7C  
                          l2567 1C66                            l2559 1C40                            l2663 28F8  
                          l2655 28E4                            l2647 28B4                            l1961 10F6  
                          l1953 10C6                            l1945 10A6                            l1937 107C  
                          l1929 104C                            l2497 1AF2                            l2489 1AAE  
                          l2593 1CB8                            l2577 1C80                            l2657 28EC  
                          l2649 28B8                            l1971 1132                            l1963 1106  
                          l1955 10D4                            l1947 10AC                            l1939 108C  
                          l2499 1B02                            l2595 1CCE                            l2587 1CA2  
                          l2579 1C84                            l2659 28F0                            l1981 1150  
                          l1973 1140                            l1965 1108                            l1957 10D6  
                          l1949 10BE                            l2597 1CD6                            l2589 1CB0  
                          l1991 1164                            l1983 1154                            l1975 1144  
                          l1959 10E6                            l1967 1110                            l1993 1168  
                          l1985 1158                            l1977 1148                            l1969 1120  
                          l1995 116C                            l1987 115C                            l1979 114C  
                          l1997 1170                            l1989 1160                            l1999 1174  
                          STR_1 1029                            STR_2 1001                            _BRGH 007D62  
                          _CREN 007D5C                            u1100 10F6                            u1101 10F2  
                          u1110 1132                            u1111 112E                            u1200 124C  
                          u1120 1140                            u1040 105A                            u1201 1248  
                          u1121 113C                            u1041 1056                            u1210 127E  
                          u1130 11AE                            u1050 106C                            u1211 127A  
                          u1131 11AA                            u1051 1068                            u1300 13C6  
                          u1220 128C                            u1140 11C6                            u1060 107C  
                          u1301 13C2                            u1221 1288                            u1141 11C0  
                          u1061 1078                            u1310 13D6                            u1230 12AA  
                          u1150 11C8                            u1070 10BE                            u1311 13D2  
                          u1231 12A6                            u1071 10BA                            u1400 14BE  
                          u1320 13E8                            u1240 12E2                            u1160 11F0  
                          u1080 10D4                            u1401 14BA                            u1321 13E4  
                          u1241 12DE                            u1161 11EC                            u1081 10D0  
                          u1410 14D0                            u1330 13FE                            u1250 1328  
                          u1170 120E                            u1090 10E6                            u1411 14CC  
                          u1331 13FA                            u1251 1324                            u1171 120A  
                          u1091 10E2                            u1420 14EC                            u1340 1414  
                          u1260 135E                            u1180 122E                            u1500 15E4  
                          u1421 14E8                            u1341 1410                            u1261 135A  
                          u1181 122A                            u1501 15E0                            u1350 1428  
                          u1270 136E                            u1190 123C                            u1510 175E  
                          u1430 151A                            u1351 1424                            u1271 136A  
                          u1191 1238                            u1431 1516                            u1360 1442  
                          u1280 139A                            u1600 18D2                            u1520 17B8  
                          u1440 152C                            u1361 143E                            u1281 1396  
                          u1601 18CE                            u1521 17B4                            u1441 1528  
                          u1370 147C                            u1290 13AA                            u1610 190C  
                          u1530 17D8                            u1450 153C                            u1371 1478  
                          u1291 13A6                            u1611 1908                            u1531 17D4  
                          u1515 1754                            u1451 1538                            u1620 29EC  
                          u1380 148E                            u1540 17EA                            u1460 157C  
                          u1700 243C                            u1621 29E8                            u1381 148A  
                          u1541 17E6                            u1461 1578                            u1701 2438  
                          u1390 149E                            u1550 1818                            u1470 158E  
                          u1630 1F1C                            u1710 20EA                            u1391 149A  
                          u1551 1814                            u1471 158A                            u1631 1F18  
                          u1711 20E6                            u1560 182E                            u1480 159E  
                          u1640 1F3A                            u1720 2108                            u1561 182A  
                          u1481 159A                            u1641 1F36                            u1721 2104  
                          u1570 1842                            u1490 15D4                            u1650 1F5C  
                          u1730 212A                            u1571 183E                            u1491 15D0  
                          u1651 1F58                            u1731 2126                            u1740 2574  
                          u1820 24C6                            u1580 185C                            u1660 22B6  
                          u1900 1C9A                            u1741 2570                            u1821 24C2  
                          u1805 2450                            u1581 1858                            u1661 22B2  
                          u1901 1C96                            u1750 2596                            u1590 18A4  
                          u1670 22D4                            u1910 1CCE                            u1751 2592  
                          u1815 248A                            u1591 18A0                            u1671 22D0  
                          u1911 1CCA                            u1760 25D0                            u1680 22F6  
                          u1920 1D0A                            u1761 25CC                            u1681 22F2  
                          u1921 1D06                            u1770 25F2                            u1850 2550  
                          u1690 241A                            u1930 1D46                            u1771 25EE  
                          u1851 254C                            u1835 24D8                            u1691 2416  
                          u1931 1D42                            u1780 261A                            u1860 296E  
                          u1940 1D82                            u1781 2616                            u1845 2512  
                          u1861 296A                            u1941 1D7E                            u1790 264C  
                          u1870 1BE6                            u1950 2916                            u1791 2648  
                          u1871 1BE2                            u1951 2912                            u1880 1C22  
                          u1881 1C1E                            u1890 1C5E                            u1891 1C5A  
                          _RCIF 007CF5                            _SPEN 007D5F                            _TRMT 007D61  
                          _TXEN 007D65                            _SYNC 007D64                            _Xo_0 0047  
                          _Xo_1 00D4                            _main 28AC                            fsr2h 000FDA  
                          indf2 000FDF                            fsr1l 000FE1                            fsr2l 000FD9  
                          prodh 000FF4                            prodl 000FF3                            start 0000  
                  ___param_bank 000000         __end_of_UART_Write_Text 2970                 matrix_sum_c1@M1 0011  
               matrix_sum_c1@M2 0013                 __end_of___aldiv 266E                 __end_of___fladd 1500  
                         ?_main 0001                 __end_of___flmul 192A                           _RCREG 000FAE  
                         _SPBRG 000FAF                           _TXREG 000FAD                     ?_UART_Write 0001  
            __size_of_UART_Init 0124                           _aux_1 00B4                           _aux_2 00A4  
                         _aux_3 0077                           _aux_4 0094                           _aux_5 01C0  
                         _count 0043                           _input 00F4                    main@muestras 0041  
                         tablat 000FF5                           status 000FD8          ??_INTERRUPT_configurar 0001  
               __initialization 273E                    __end_of_main 291A          ??_plantaPLUSobservador 0040  
                        ??_main 0040                matrix_sum_c1@res 0015                   __activetblptr 000001  
       ??_matrix_multiply_c1_c1 002C         ??_matrix_multiply_c4_c1 002C         ??_matrix_multiply_c5_c1 002C  
                        _TRISC6 007CA6                          _TRISC7 007CA7        __size_of_PORT_configurar 0006  
             __end_of_UART_Init 2562             __size_of_UART_Write 0016                       ??___aldiv 0009  
                     ??___fladd 0009                          ___wmul 29B6                       ??___flmul 000F  
              ?_UART_Write_Text 0002                          clear_0 27C4                          clear_1 27D0  
                        clear_2 27DC                          clear_3 27E8                    __pdataCOMRAM 007B  
                  __mediumconst 0000                          tblptrh 000FF7                          tblptrl 000FF6  
                        tblptru 000FF8              __size_of___asfladd 0046     sendDataVisualizer@ptrPlanta 0012  
                    __accesstop 0080         __end_of__initialization 27EE                   ___rparam_used 000001  
                __pcstackCOMRAM 0001                    __pidataBANK0 29F2                    __pidataBANK1 27FC  
                  __pidataBANK2 266E          __size_of_matrix_sum_c1 0146                      __pbssBANK0 0080  
                    __pbssBANK1 01B0                      __pbssBANK3 0300     __size_of_sendDataVisualizer 01EE  
                       ?___wmul 0001               __end_of___asfladd 29B6               ??_PORT_configurar 0001  
                  ??_UART_Write 0001                   _matrix_sum_c1 22F8                         __Hparam 0000  
                       __Lparam 0000                         ___aldiv 2562                         ___fladd 1040  
                       ___flmul 1500                 __size_of___wmul 0026              __end_of_UART_Write 29F2  
                  __psmallconst 1000         sendDataVisualizer@x_343 0004         sendDataVisualizer@x_344 0006  
       sendDataVisualizer@x_345 0008         sendDataVisualizer@x_346 000A         sendDataVisualizer@x_347 000C  
       sendDataVisualizer@x_348 000E         sendDataVisualizer@x_349 0010                         __pcinit 273E  
                       __ramtop 1000                         __ptext0 28AC                         __ptext1 1B9C  
                       __ptext2 192A                         __ptext3 22F8                         __ptext4 1F5E  
                       __ptext5 29B6                         __ptext6 1D8A                         __ptext7 212C  
                       __ptext8 1500                         __ptext9 2970                ___aldiv@dividend 0001  
                ?_matrix_sum_c1 0011            end_of_initialization 27EE  __size_of_matrix_multiply_c1_c1 01CC  
__size_of_matrix_multiply_c4_c1 01D4  __size_of_matrix_multiply_c5_c1 01CE   __end_of_matrix_multiply_c1_c1 22F8  
 __end_of_matrix_multiply_c4_c1 1F5E   __end_of_matrix_multiply_c5_c1 212C   __size_of_INTERRUPT_configurar 0006  
              ___aldiv@quotient 000B                         postdec1 000FE5                         postdec2 000FDD  
                       postinc0 000FEE                         postinc2 000FDE          matrix_multiply_c1_c1@i 003A  
        matrix_multiply_c1_c1@j 003E          matrix_multiply_c1_c1@k 003C                       _UART_Init 243E  
        matrix_multiply_c4_c1@i 003A          matrix_multiply_c4_c1@j 003E          matrix_multiply_c4_c1@k 003C  
        matrix_multiply_c5_c1@i 0038          matrix_multiply_c5_c1@j 003C          matrix_multiply_c5_c1@k 003A  
                UART_Write@data 0001   __size_of_plantaPLUSobservador 0272                     ___fladd@grs 0010  
                     _TRISCbits 000F94                     ___flmul@grs 0014                  __end_of___wmul 29DC  
                    ?_UART_Init 000F                   __pidataCOMRAM 2A06        __size_of_UART_Write_Text 0056  
           start_initialization 273E                 ??_matrix_sum_c1 0017                 _PORT_configurar 29FA  
                      ??___wmul 0005                     __pdataBANK0 00F4                     __pdataBANK1 0100  
                   __pdataBANK2 0200                       ___fladd@a 0005                       ___fladd@b 0001  
                     ___asfladd 2970                       ___flmul@a 000B                       ___flmul@b 0007  
                   __pbssCOMRAM 0043      __end_of_sendDataVisualizer 1D8A                        ?___aldiv 0001  
                      ?___fladd 0001                        ?___flmul 0007                     ??_UART_Init 0013  
                   __smallconst 1000                      ?___asfladd 0020                    _ref_by_Nbard 00F8  
       __end_of_PORT_configurar 2A00                      UART_Init@x 001B               ??_UART_Write_Text 0004  
               ___aldiv@divisor 0005                 ___aldiv@counter 0009                  ___wmul@product 0005  
             UART_Init@baudrate 000F               ___wmul@multiplier 0001    __end_of_INTERRUPT_configurar 2A06  
                     copy_data0 2752                       copy_data1 2772                       copy_data2 2792  
                     copy_data3 27B2    __end_of_plantaPLUSobservador 1B9C                        __Hrparam 0000  
         _matrix_multiply_c1_c1 212C                        __Lrparam 0000           _matrix_multiply_c4_c1 1D8A  
         _matrix_multiply_c5_c1 1F5E                    __Lsmallconst 1000                __size_of___aldiv 010C  
              __size_of___fladd 04C0                __size_of___flmul 042A                     ??___asfladd 0026  
                      __ptext10 1040                        __ptext11 291A                        __ptext12 29DC  
                      __ptext13 243E                        __ptext14 2562                        __ptext15 29FA  
                      __ptext16 2A00        sendDataVisualizer@ptrObs 0014                ?_PORT_configurar 0001  
           UART_Write_Text@text 0002                   __size_of_main 006E                        _inputObs 0080  
                    _INTCONbits 000FF2           __end_of_matrix_sum_c1 243E        matrix_multiply_c1_c1@res 002A  
        ?_matrix_multiply_c1_c1 0026          ?_matrix_multiply_c4_c1 0026          ?_matrix_multiply_c5_c1 0026  
      matrix_multiply_c4_c1@res 002A            _INTERRUPT_configurar 2A00        matrix_multiply_c5_c1@res 002A  
            _sendDataVisualizer 1B9C             ?_sendDataVisualizer 0001                 _UART_Write_Text 291A  
          _plantaPLUSobservador 192A         matrix_multiply_c1_c1@M1 0026         matrix_multiply_c1_c1@M2 0028  
       matrix_multiply_c4_c1@M1 0026         matrix_multiply_c4_c1@M2 0028         matrix_multiply_c5_c1@M1 0026  
       matrix_multiply_c5_c1@M2 0028                    ___aldiv@sign 000A                      _UART_Write 29DC  
                 ___fladd@signs 000D                UART_Write_Text@i 0006            ??_sendDataVisualizer 0002  
                  ___fladd@aexp 000E                    ___fladd@bexp 000F                   ___asfladd@f1p 0020  
                  ___asfladd@f2 0022           ?_INTERRUPT_configurar 0001  
